
../bin/pio_test.elf:     file format elf32-littlenios2
../bin/pio_test.elf
architecture: nios2, flags 0x00000112:
EXEC_P, HAS_SYMS, D_PAGED
start address 0x00100124

Program Header:
    LOAD off    0x00001020 vaddr 0x01000020 paddr 0x00100000 align 2**12
         filesz 0x00000124 memsz 0x00000124 flags r-x
    LOAD off    0x00002124 vaddr 0x00100124 paddr 0x00100124 align 2**12
         filesz 0x000088a4 memsz 0x000088a4 flags r-x
    LOAD off    0x0000a9c8 vaddr 0x001089c8 paddr 0x0010a0b0 align 2**12
         filesz 0x000016e8 memsz 0x000016e8 flags rw-
    LOAD off    0x0000c798 vaddr 0x0010b798 paddr 0x0010b798 align 2**12
         filesz 0x00000000 memsz 0x000040a8 flags rw-
    LOAD off    0x0000d000 vaddr 0x01000000 paddr 0x01000000 align 2**12
         filesz 0x00000020 memsz 0x00000020 flags r-x

Sections:
Idx Name          Size      VMA       LMA       File off  Algn
  0 .entry        00000020  01000000  01000000  0000d000  2**5
                  CONTENTS, ALLOC, LOAD, READONLY, CODE
  1 .exceptions   00000124  01000020  00100000  00001020  2**2
                  CONTENTS, ALLOC, LOAD, READONLY, CODE
  2 .text         00008604  00100124  00100124  00002124  2**2
                  CONTENTS, ALLOC, LOAD, READONLY, CODE
  3 .rodata       000002a0  00108728  00108728  0000a728  2**2
                  CONTENTS, ALLOC, LOAD, READONLY, DATA
  4 .rwdata       000016e8  001089c8  0010a0b0  0000a9c8  2**2
                  CONTENTS, ALLOC, LOAD, DATA, SMALL_DATA
  5 .bss          000040a8  0010b798  0010b798  0000c798  2**2
                  ALLOC, SMALL_DATA
  6 .comment      00000026  00000000  00000000  0000d020  2**0
                  CONTENTS, READONLY
  7 .debug_aranges 000008f8  00000000  00000000  0000d048  2**3
                  CONTENTS, READONLY, DEBUGGING
  8 .debug_pubnames 00001a7e  00000000  00000000  0000d940  2**0
                  CONTENTS, READONLY, DEBUGGING
  9 .debug_info   00015a43  00000000  00000000  0000f3be  2**0
                  CONTENTS, READONLY, DEBUGGING
 10 .debug_abbrev 00005e42  00000000  00000000  00024e01  2**0
                  CONTENTS, READONLY, DEBUGGING
 11 .debug_line   00010a27  00000000  00000000  0002ac43  2**0
                  CONTENTS, READONLY, DEBUGGING
 12 .debug_frame  0000166c  00000000  00000000  0003b66c  2**2
                  CONTENTS, READONLY, DEBUGGING
 13 .debug_str    00002f8c  00000000  00000000  0003ccd8  2**0
                  CONTENTS, READONLY, DEBUGGING
 14 .debug_loc    00006bc3  00000000  00000000  0003fc64  2**0
                  CONTENTS, READONLY, DEBUGGING
 15 .debug_alt_sim_info 00000010  00000000  00000000  00046828  2**2
                  CONTENTS, READONLY, DEBUGGING
 16 .debug_ranges 00000840  00000000  00000000  00046838  2**3
                  CONTENTS, READONLY, DEBUGGING
 17 .thread_model 00000006  00000000  00000000  0004ab82  2**0
                  CONTENTS, READONLY
 18 .cpu          00000005  00000000  00000000  0004ab88  2**0
                  CONTENTS, READONLY
 19 .qsys         00000001  00000000  00000000  0004ab8d  2**0
                  CONTENTS, READONLY
 20 .simulation_enabled 00000001  00000000  00000000  0004ab8e  2**0
                  CONTENTS, READONLY
 21 .stderr_dev   0000000b  00000000  00000000  0004ab8f  2**0
                  CONTENTS, READONLY
 22 .stdin_dev    0000000b  00000000  00000000  0004ab9a  2**0
                  CONTENTS, READONLY
 23 .stdout_dev   0000000b  00000000  00000000  0004aba5  2**0
                  CONTENTS, READONLY
 24 .sopc_system_name 0000000f  00000000  00000000  0004abb0  2**0
                  CONTENTS, READONLY
 25 .jdi          0000509f  00000000  00000000  0004abbf  2**0
                  CONTENTS, READONLY
 26 .sopcinfo     0007119e  00000000  00000000  0004fc5e  2**0
                  CONTENTS, READONLY
SYMBOL TABLE:
01000000 l    d  .entry	00000000 .entry
01000020 l    d  .exceptions	00000000 .exceptions
00100124 l    d  .text	00000000 .text
00108728 l    d  .rodata	00000000 .rodata
001089c8 l    d  .rwdata	00000000 .rwdata
0010b798 l    d  .bss	00000000 .bss
00000000 l    d  .comment	00000000 .comment
00000000 l    d  .debug_aranges	00000000 .debug_aranges
00000000 l    d  .debug_pubnames	00000000 .debug_pubnames
00000000 l    d  .debug_info	00000000 .debug_info
00000000 l    d  .debug_abbrev	00000000 .debug_abbrev
00000000 l    d  .debug_line	00000000 .debug_line
00000000 l    d  .debug_frame	00000000 .debug_frame
00000000 l    d  .debug_str	00000000 .debug_str
00000000 l    d  .debug_loc	00000000 .debug_loc
00000000 l    d  .debug_alt_sim_info	00000000 .debug_alt_sim_info
00000000 l    d  .debug_ranges	00000000 .debug_ranges
0010015c l       .text	00000000 alt_after_alt_main
00000000 l    df *ABS*	00000000 alt_irq_handler.c
00000000 l    df *ABS*	00000000 pio_test.c
00000000 l    df *ABS*	00000000 alt_load.c
00100208 l     F .text	00000020 alt_load_section
00000000 l    df *ABS*	00000000 alt_main.c
00000000 l    df *ABS*	00000000 alt_env_lock.c
0010b7a4 l     O .bss	00000004 locks
0010a008 l     O .rwdata	00000004 lockid
00000000 l    df *ABS*	00000000 alt_malloc_lock.c
0010b7ac l     O .bss	00000004 locks
0010a00c l     O .rwdata	00000004 lockid
00000000 l    df *ABS*	00000000 os_core.c
00000000 l    df *ABS*	00000000 os_dbg.c
00000000 l    df *ABS*	00000000 os_flag.c
00101610 l     F .text	000000b8 OS_FlagBlock
00101704 l     F .text	00000090 OS_FlagTaskRdy
00000000 l    df *ABS*	00000000 os_mem.c
00000000 l    df *ABS*	00000000 os_q.c
00000000 l    df *ABS*	00000000 os_sem.c
00000000 l    df *ABS*	00000000 os_task.c
00000000 l    df *ABS*	00000000 os_time.c
00000000 l    df *ABS*	00000000 os_tmr.c
001047b4 l     F .text	00000068 OSTmr_Free
0010481c l     F .text	000000a0 OSTmr_Link
001048bc l     F .text	00000064 OSTmr_Unlink
00104abc l     F .text	000000c0 OSTmr_Task
00104a80 l     F .text	0000002c OSTmr_Lock
00104aac l     F .text	00000010 OSTmr_Unlock
00000000 l    df *ABS*	00000000 alt_sys_init.c
00105348 l     F .text	0000000c alt_dev_reg
001089c8 l     O .rwdata	0000106c jtag_uart_0
00109a34 l     O .rwdata	0000002c DE2_LCD
00000000 l    df *ABS*	00000000 altera_avalon_jtag_uart_fd.c
00000000 l    df *ABS*	00000000 altera_avalon_jtag_uart_init.c
0010547c l     F .text	00000088 altera_avalon_jtag_uart_timeout
001055cc l     F .text	0000016c altera_avalon_jtag_uart_irq
00000000 l    df *ABS*	00000000 altera_avalon_jtag_uart_ioctl.c
00000000 l    df *ABS*	00000000 altera_avalon_jtag_uart_read.c
00000000 l    df *ABS*	00000000 altera_avalon_jtag_uart_write.c
00000000 l    df *ABS*	00000000 altera_avalon_timer_sc.c
00105b68 l     F .text	0000003c alt_avalon_timer_sc_irq
00000000 l    df *ABS*	00000000 altera_avalon_timer_vars.c
00000000 l    df *ABS*	00000000 altera_up_avalon_character_lcd.c
00000000 l    df *ABS*	00000000 alt_alarm_start.c
00000000 l    df *ABS*	00000000 alt_close.c
00105e84 l     F .text	00000020 alt_get_errno
00000000 l    df *ABS*	00000000 alt_dcache_flush_all.c
00000000 l    df *ABS*	00000000 alt_dev.c
00105f44 l     F .text	00000008 alt_dev_null_write
00000000 l    df *ABS*	00000000 alt_dev_llist_insert.c
00000000 l    df *ABS*	00000000 alt_do_ctors.c
00000000 l    df *ABS*	00000000 alt_do_dtors.c
00000000 l    df *ABS*	00000000 alt_errno.c
00000000 l    df *ABS*	00000000 alt_find_dev.c
00000000 l    df *ABS*	00000000 alt_icache_flush_all.c
00000000 l    df *ABS*	00000000 alt_iic.c
00000000 l    df *ABS*	00000000 alt_iic_isr_register.c
00000000 l    df *ABS*	00000000 alt_io_redirect.c
001061b8 l     F .text	00000088 alt_open_fd
00000000 l    df *ABS*	00000000 alt_irq_vars.c
00000000 l    df *ABS*	00000000 alt_open.c
00000000 l    df *ABS*	00000000 alt_release_fd.c
00000000 l    df *ABS*	00000000 alt_tick.c
00000000 l    df *ABS*	00000000 altera_nios2_qsys_irq.c
00000040 l       *ABS*	00000000 OSCtxSw_SWITCH_PC
00000000 l    df *ABS*	00000000 os_cpu_c.c
0010b834 l     O .bss	00000002 OSTmrCtr
00000014 l       *ABS*	00000000 OSTCBNext_OFFSET
00000032 l       *ABS*	00000000 OSTCBPrio_OFFSET
00000000 l       *ABS*	00000000 OSTCBStkPtr_OFFSET
00000000 l    df *ABS*	00000000 alt_find_file.c
00000000 l    df *ABS*	00000000 alt_get_fd.c
00000000 l    df *ABS*	00000000 atexit.c
00000000 l    df *ABS*	00000000 exit.c
00000000 l    df *ABS*	00000000 impure.c
00109c08 l     O .rwdata	00000400 impure_data
00000000 l    df *ABS*	00000000 int_errno.c
00000000 l    df *ABS*	00000000 memcmp.c
00000000 l    df *ABS*	00000000 memcpy.c
00000000 l    df *ABS*	00000000 memset.c
00000000 l    df *ABS*	00000000 strlen.c
00000000 l    df *ABS*	00000000 __atexit.c
00000000 l    df *ABS*	00000000 __call_atexit.c
00106d64 l     F .text	00000004 register_fini
00000000 l    df *ABS*	00000000 libgcc2.c
00000000 l    df *ABS*	00000000 dp-bit.c
00106fbc l     F .text	00000410 _fpadd_parts
00000000 l    df *ABS*	00000000 dp-bit.c
00000000 l    df *ABS*	00000000 dp-bit.c
00000000 l    df *ABS*	00000000 dp-bit.c
00000000 l    df *ABS*	00000000 dp-bit.c
00000000 l    df *ABS*	00000000 dp-bit.c
00000000 l    df *ABS*	00000000 dp-bit.c
00000000 l    df *ABS*	00000000 dp-bit.c
00000000 l    df *ABS*	00000000 lib2-divmod.c
00107ec8 l     F .text	0000007c udivmodsi4
00000000 l    df *ABS*	00000000 lib2-mul.c
00000000 l    df *ABS*	00000000 libgcc2.c
00000000 l    df *ABS*	00000000 libgcc2.c
00000000 l    df *ABS*	00000000 dp-bit.c
00000000 l    df *ABS*	00000000 dp-bit.c
00000000 l    df *ABS*	00000000 dp-bit.c
00000000 l    df *ABS*	00000000 libgcc2.c
00000000 l    df *ABS*	00000000 alt_exit.c
0010a05a g     O .rwdata	00000002 OSTaskNameSize
00100294 g     F .text	000000a8 alt_main
0010b7b4 g     O .bss	00000004 OSTmrFreeList
0010f5b0 g     O .bss	00000100 alt_irq
0010226c g     F .text	00000068 OS_MemInit
0010a0b0 g       *ABS*	00000000 __flash_rwdata_start
0010443c g     F .text	00000024 OSTimeSet
00105c2c g     F .text	00000010 alt_up_character_lcd_send_cmd
0010b83c g     O .bss	00000010 OSTmrWheelTbl
00100ca8 g     F .text	00000358 OSEventPendMulti
0010665c g     F .text	00000004 OSTaskCreateHook
0010a032 g     O .rwdata	00000002 OSMboxEn
00101000 g     F .text	0000003c OSIntEnter
00100000 g       *ABS*	00000000 __alt_mem_sram
0010a042 g     O .rwdata	00000002 OSQEn
001003e4 g     F .text	0000005c __malloc_unlock
00106668 g     F .text	00000004 OSTaskStatHook
0010b7b8 g     O .bss	00000001 OSLockNesting
0010b7bc g     O .bss	00000004 OSTmrSemSignal
0010a080 g     O .rwdata	00000002 OSDataSize
0010b7c0 g     O .bss	00000001 OSRunning
0010b820 g     O .bss	00000004 altera_avalon_timer_ts_freq
0010666c g     F .text	00000008 OSInitHookBegin
0010a078 g     O .rwdata	00000002 OSTmrSize
0010b7c4 g     O .bss	00000004 OSIdleCtr
00106638 g       .text	00000000 OSStartTsk
00000000  w      *UND*	00000000 __errno
00105ba4 g     F .text	00000018 get_DDRAM_addr
001012f8 g     F .text	00000184 OS_TCBInit
01000000 g     F .entry	0000000c __reset
0010b7c8 g     O .bss	00000002 OSTmrUsed
0010a07e g     O .rwdata	00000002 OSTmrWheelTblSize
00100000 g       *ABS*	00000000 __flash_exceptions_start
0010a01e g     O .rwdata	00000002 OSEventSize
0010b7ca g     O .bss	00000001 OSPrioHighRdy
00106660 g     F .text	00000004 OSTaskDelHook
0010b838 g     O .bss	00000004 errno
00106618 g       .text	00000000 OSStartHighRdy
00103a68 g     F .text	00000178 OSTaskCreateExt
0010204c g     F .text	0000002c OSFlagPendGetFlagsRdy
0010a05e g     O .rwdata	00000002 OSTaskStatStkSize
00101860 g     F .text	00000170 OSFlagAccept
00102a2c g     F .text	00000050 OSQFlush
0010270c g     F .text	0000009c OSQAccept
0010b79c g     O .bss	00000004 alt_argv
00112008 g       *ABS*	00000000 _gp
0010395c g     F .text	0000010c OSTaskCreate
001036c0 g     F .text	0000029c OSTaskChangePrio
0010b7b0 g     O .bss	00000004 alt_heapsem
0010160c g     F .text	00000004 OSDebugInit
00103be0 g     F .text	0000024c OSTaskDel
00109a88 g     O .rwdata	00000180 alt_fd_list
0010b84c g     O .bss	00000370 OSFlagTbl
00100624 g     F .text	0000004c OS_EventTaskRemove
0010603c g     F .text	00000070 alt_find_dev
00106a84 g     F .text	000000a0 memcpy
0010a048 g     O .rwdata	00000002 OSRdyTblSize
00105bfc g     F .text	00000020 alt_up_character_lcd_write_fd
0010bbbc g     O .bss	00000340 OSTmrTbl
00107b64 g     F .text	000000f8 __floatsidf
00106240 g     F .text	0000008c alt_io_redirect
00108728 g       *ABS*	00000000 __DTOR_END__
00100bf0 g     F .text	000000b8 OSEventNameGet
0010a02c g     O .rwdata	00000002 OSFlagMax
0010147c g     F .text	000000d4 OSIntExit
0010a066 g     O .rwdata	00000002 OSTCBSize
0010b7cb g     O .bss	00000001 OSPrioCur
001057b4 g     F .text	000001ac altera_avalon_jtag_uart_read
00000000  w      *UND*	00000000 malloc
00108004 g     F .text	00000008 __udivsi3
0010a04c g     O .rwdata	00000002 OSStkWidth
0010a040 g     O .rwdata	00000002 OSPtrSize
0010a020 g     O .rwdata	00000002 OSEventTblSize
00106f18 g     F .text	000000a4 __fixunsdfsi
0010658c g       .text	00000000 OSCtxSw
0010b7cc g     O .bss	00000004 OSTCBList
00105098 g     F .text	00000028 OSTmrSignal
0010b824 g     O .bss	00000004 alt_fd_list_lock
0010befc g     O .bss	00000c30 OSMemTbl
0010b7d0 g     O .bss	00000001 OSTickStepState
0010a044 g     O .rwdata	00000002 OSQMax
0010cb2c g     O .bss	00000800 OSTaskStatStk
00102474 g     F .text	0000009c OSMemNameGet
0010a024 g     O .rwdata	00000002 OSFlagEn
0010a06a g     O .rwdata	00000002 OSTimeTickHookEn
00102d24 g     F .text	000000bc OSQPost
001016c8 g     F .text	0000003c OS_FlagUnlink
0010a094 g     O .rwdata	00000004 alt_max_fd
001007f8 g     F .text	00000024 OS_MemCopy
00108504 g     F .text	00000138 __unpack_d
001008ec g     F .text	000000b8 OS_Sched
00102408 g     F .text	0000006c OSMemGet
00103fe8 g     F .text	0000011c OSTaskNameSet
0010b7d4 g     O .bss	00000004 OSCtxSwCtr
00106680 g     F .text	00000058 OSTimeTickHook
0010a02e g     O .rwdata	00000002 OSFlagNameSize
00100670 g     F .text	0000005c OS_EventTaskRemoveMulti
0010744c g     F .text	00000074 __adddf3
00100584 g     F .text	000000a0 OS_EventTaskWaitMulti
0010a046 g     O .rwdata	00000002 OSQSize
00103270 g     F .text	00000168 OSSemPend
0010a0ac g     O .rwdata	00000004 _global_impure_ptr
0010a030 g     O .rwdata	00000002 OSLowestPrio
0010f840 g       *ABS*	00000000 __bss_end
0010614c g     F .text	0000006c alt_iic_isr_register
0010667c g     F .text	00000004 OSTCBInitHook
0010a076 g     O .rwdata	00000002 OSTmrCfgTicksPerSec
001064d8 g     F .text	000000ac alt_tick
0010a018 g     O .rwdata	00000002 OSEventEn
0010a072 g     O .rwdata	00000002 OSTmrCfgNameSize
00107d34 g     F .text	00000194 __floatunsidf
001060b0 g     F .text	00000018 alt_ic_irq_enabled
0010b7d8 g     O .bss	00000002 OSTmrFree
00101794 g     F .text	00000070 OS_FlagInit
001064a4 g     F .text	00000034 alt_alarm_stop
00104f9c g     F .text	000000fc OSTmrDel
0010a054 g     O .rwdata	00000002 OSTaskIdleStkSize
0010b828 g     O .bss	00000004 alt_irq_active
0010304c g     F .text	00000044 OSSemAccept
001025cc g     F .text	00000058 OSMemPut
00102338 g     F .text	000000d0 OSMemCreate
0010b7dc g     O .bss	00000004 OSIdleCtrMax
010000ec g     F .exceptions	00000058 alt_irq_handler
00109a60 g     O .rwdata	00000028 alt_dev_null
0010a068 g     O .rwdata	00000002 OSTicksPerSec
00105c3c g     F .text	00000008 alt_up_character_lcd_cursor_blink_on
0010658c g       .text	00000000 OSIntCtxSw
00105f40 g     F .text	00000004 alt_dcache_flush_all
00107c5c g     F .text	000000d8 __fixdfsi
0010b7e0 g     O .bss	00000004 OSTCBFreeList
0010a0b0 g       *ABS*	00000000 __ram_rwdata_end
001033d8 g     F .text	000000ec OSSemPendAbort
00000000 g       *ABS*	00000000 __alt_mem_onchip_memory
0010a08c g     O .rwdata	00000008 alt_dev_list
0010a06c g     O .rwdata	00000002 OSVersionNbr
001089c8 g       *ABS*	00000000 __ram_rodata_end
00104e84 g     F .text	00000118 OSTmrRemainGet
0010a014 g     O .rwdata	00000004 OSEndiannessTest
0010800c g     F .text	00000008 __umodsi3
0010a026 g     O .rwdata	00000002 OSFlagGrpSize
00104ddc g     F .text	000000a8 OSTmrStateGet
0010f840 g       *ABS*	00000000 end
00105504 g     F .text	000000c8 altera_avalon_jtag_uart_init
00101274 g     F .text	00000084 OS_TaskStat
00108724 g       *ABS*	00000000 __CTOR_LIST__
00180000 g       *ABS*	00000000 __alt_stack_pointer
00105b18 g     F .text	00000050 alt_avalon_timer_sc_init
00108170 g     F .text	00000080 __clzsi2
00105960 g     F .text	000001b8 altera_avalon_jtag_uart_write
00104920 g     F .text	00000160 OSTmr_Init
001007dc g     F .text	0000001c OS_MemClr
00105bd8 g     F .text	00000024 alt_up_character_lcd_write
001066d8 g     F .text	000001ac OSTaskStkInit
001006cc g     F .text	000000f4 OS_EventTaskRdy
00106d68 g     F .text	000001b0 __call_exitprocs
0010b7e4 g     O .bss	00000001 OSCPUUsage
00100124 g     F .text	0000003c _start
0010b82c g     O .bss	00000004 _alt_tick_rate
00102a7c g     F .text	000001c0 OSQPend
00104460 g     F .text	00000098 OSTimeDly
0010b830 g     O .bss	00000004 _alt_nticks
00105354 g     F .text	00000094 alt_sys_init
00105cb0 g     F .text	00000070 alt_up_character_lcd_shift_display
00106c30 g     F .text	00000134 __register_exitproc
0010b7e5 g     O .bss	00000001 OSTaskCtr
001044f8 g     F .text	000001a0 OSTimeDlyHMSM
00105c4c g     F .text	00000064 alt_up_character_lcd_erase_pos
00105444 g     F .text	00000038 altera_avalon_jtag_uart_close
00108014 g     F .text	00000038 __mulsi3
001089c8 g       *ABS*	00000000 __ram_rwdata_start
00108728 g       *ABS*	00000000 __ram_rodata_start
0010a01a g     O .rwdata	00000002 OSEventMax
001034c4 g     F .text	0000009c OSSemPost
00101080 g     F .text	00000054 OSSchedUnlock
00105434 g     F .text	00000010 altera_avalon_jtag_uart_read_fd
00106920 g     F .text	000000a4 alt_get_fd
0010b7e8 g     O .bss	00000004 OSMemFreeList
001010d4 g     F .text	00000064 OSStatInit
00101804 g     F .text	0000005c OSFlagQuery
0010863c g     F .text	000000c8 __fpcmp_parts_d
0010a050 g     O .rwdata	00000002 OSTaskCreateExtEn
00106a10 g     F .text	00000074 memcmp
001004fc g     F .text	00000004 OS_Dummy
00105414 g     F .text	00000010 altera_avalon_jtag_uart_close_fd
0010f840 g       *ABS*	00000000 __alt_stack_base
00105408 g     F .text	0000000c altera_avalon_jtag_uart_ioctl_fd
0010d32c g     O .bss	000001e0 OSQTbl
00107884 g     F .text	00000258 __divdf3
001074c0 g     F .text	000003c4 __muldf3
0010b7ec g     O .bss	00000004 OSTCBHighRdy
0010b7f0 g     O .bss	00000004 OSQFreeList
00106884 g     F .text	0000009c alt_find_file
00105f4c g     F .text	00000070 alt_dev_llist_insert
00100440 g     F .text	000000b4 __malloc_lock
00101550 g     F .text	000000bc OSEventNameSet
0010b7f4 g     O .bss	00000001 OSRdyGrp
00104cd8 g     F .text	00000104 OSTmrStart
0010b798 g       *ABS*	00000000 __bss_start
00106b24 g     F .text	00000098 memset
00100160 g     F .text	000000a8 main
0010b7a0 g     O .bss	00000004 alt_envp
00105424 g     F .text	00000010 altera_avalon_jtag_uart_write_fd
0010875a g     O .rodata	00000100 OSUnMapTbl
0010a04a g     O .rwdata	00000002 OSSemEn
00105d20 g     F .text	00000070 alt_up_character_lcd_shift_cursor
00102078 g     F .text	000001f4 OSFlagPost
00100500 g     F .text	00000084 OS_EventTaskWait
00100868 g     F .text	00000084 OS_TaskStatStkChk
0010f6b0 g     O .bss	00000190 _atexit0
00103e2c g     F .text	000000b4 OSTaskDelReq
0010a098 g     O .rwdata	00000004 alt_errno
001009a4 g     F .text	0000006c OSStart
0010033c g     F .text	00000028 __env_unlock
00104104 g     F .text	00000104 OSTaskResume
001022d4 g     F .text	00000064 OSMemQuery
0010a05c g     O .rwdata	00000002 OSTaskStatEn
0010a036 g     O .rwdata	00000002 OSMemMax
00102de0 g     F .text	000000c4 OSQPostFront
00107f44 g     F .text	00000060 __divsi3
0010b7f5 g     O .bss	00000003 OSRdyTbl
0010a010 g     O .rwdata	00000002 OSDebugEn
001088b4 g     O .rodata	00000014 __thenan_df
00105de8 g     F .text	0000000c alt_up_character_lcd_open_dev
00108728 g       *ABS*	00000000 __CTOR_END__
0010a028 g     O .rwdata	00000002 OSFlagNodeSize
0010a070 g     O .rwdata	00000002 OSTmrCfgMax
00105c1c g     F .text	00000010 alt_up_character_lcd_init
001027a8 g     F .text	00000100 OSQCreate
00103ee0 g     F .text	00000108 OSTaskNameGet
00108728 g       *ABS*	00000000 __flash_rodata_start
00102ea4 g     F .text	00000144 OSQPostOpt
00101138 g     F .text	0000010c OSTimeTick
0010a058 g     O .rwdata	00000002 OSTaskMax
00108728 g       *ABS*	00000000 __DTOR_LIST__
00103090 g     F .text	0000008c OSSemCreate
0010a07c g     O .rwdata	00000002 OSTmrWheelSize
0010a052 g     O .rwdata	00000002 OSTaskDelEn
00103560 g     F .text	00000068 OSSemQuery
001028a8 g     F .text	00000184 OSQDel
00102c3c g     F .text	000000e8 OSQPendAbort
001053e8 g     F .text	00000020 alt_irq_init
00106448 g     F .text	0000005c alt_release_fd
00105c44 g     F .text	00000008 alt_up_character_lcd_cursor_off
001088c8 g     O .rodata	00000100 __clz_tab
00104b7c g     F .text	0000015c OSTmrStop
001069c4 g     F .text	00000014 atexit
0010103c g     F .text	00000044 OSSchedLock
0010d50c g     O .bss	00000800 OSTmrTaskStk
001019d0 g     F .text	00000088 OSFlagCreate
0010a0a8 g     O .rwdata	00000004 _impure_ptr
0010b798 g     O .bss	00000004 alt_argc
0010b81c g     O .bss	00000004 altera_avalon_timer_ts_base
00105ffc g     F .text	00000040 _do_dtors
0010a022 g     O .rwdata	00000002 OSEventMultiEn
001051ac g     F .text	0000019c OSTmrCreate
00101a58 g     F .text	00000160 OSFlagDel
0010b7f8 g     O .bss	00000004 OSEventFreeList
01000020 g       .exceptions	00000000 alt_irq_entry
00101d4c g     F .text	00000300 OSFlagPend
0010a06e g     O .rwdata	00000002 OSTmrEn
0010a084 g     O .rwdata	00000008 alt_fs_list
001050c0 g     F .text	000000ec OSTmrNameGet
0010081c g     F .text	0000002c OS_StrCopy
0010a038 g     O .rwdata	00000002 OSMemNameSize
00106674 g     F .text	00000004 OSInitHookEnd
01000020 g       *ABS*	00000000 __ram_exceptions_start
0010a064 g     O .rwdata	00000002 OSTCBPrioTblMax
0010a060 g     O .rwdata	00000002 OSTaskStatStkChkEn
00106148 g     F .text	00000004 alt_ic_isr_register
0010a034 g     O .rwdata	00000002 OSMemEn
0010a03e g     O .rwdata	00000002 OSMutexEn
0010a0b0 g       *ABS*	00000000 _edata
0010f840 g       *ABS*	00000000 _end
0010b7fc g     O .bss	00000001 OSIntNesting
01000144 g       *ABS*	00000000 __ram_exceptions_end
00105738 g     F .text	0000007c altera_avalon_jtag_uart_ioctl
00104698 g     F .text	000000f8 OSTimeDlyResume
00101c78 g     F .text	000000d4 OSFlagNameSet
00104208 g     F .text	000000f0 OSTaskStkChk
00106108 g     F .text	00000040 alt_ic_irq_disable
0010a03a g     O .rwdata	00000002 OSMemSize
00106584 g     F .text	00000008 altera_nios2_qsys_irq_init
0010b800 g     O .bss	00000004 OSTCBCur
001069d8 g     F .text	00000038 exit
0010a03c g     O .rwdata	00000002 OSMemTblSize
00107fa4 g     F .text	00000060 __modsi3
00180000 g       *ABS*	00000000 __alt_data_end
01000020 g     F .exceptions	00000000 alt_exception
00100a10 g     F .text	000001e0 OSInit
0010b804 g     O .bss	00000004 OSTmrTime
01000000 g       *ABS*	00000000 __alt_mem_sdram
001035f8 g     F .text	000000c8 OSTaskQuery
00105bbc g     F .text	0000001c alt_up_character_lcd_string
00102624 g     F .text	00000050 OS_QInit
00100848 g     F .text	00000020 OS_StrLen
00102510 g     F .text	000000bc OSMemNameSet
0010a056 g     O .rwdata	00000002 OSTaskProfileEn
0010b808 g     O .bss	00000004 OSTime
0010b80c g     O .bss	00000004 OSTmrSem
0010dd0c g     O .bss	00000800 OSTaskIdleStk
00108704 g     F .text	00000020 _exit
00105df4 g     F .text	00000090 alt_alarm_start
00101bb8 g     F .text	000000c0 OSFlagNameGet
00104790 g     F .text	00000024 OSTimeGet
0010804c g     F .text	00000124 __muldi3
00106bbc g     F .text	00000074 strlen
00106664 g     F .text	00000004 OSTaskSwHook
001062cc g     F .text	0000017c open
0010e50c g     O .bss	00000b40 OSEventTbl
00107adc g     F .text	00000088 __gedf2
0010f04c g     O .bss	00000510 OSTCBTbl
00102fe8 g     F .text	00000064 OSSemSet
001060ac g     F .text	00000004 alt_icache_flush_all
00105d90 g     F .text	00000058 alt_up_character_lcd_set_cursor_pos
0010a09c g     O .rwdata	00000004 alt_priority_mask
0010311c g     F .text	00000154 OSSemDel
0010b810 g     O .bss	00000004 OSFlagFreeList
001060c8 g     F .text	00000040 alt_ic_irq_enable
0010a01c g     O .rwdata	00000002 OSEventNameSize
0010b814 g     O .bss	00000001 OSStatRdy
0010f55c g     O .bss	00000054 OSTCBPrioTbl
00100364 g     F .text	00000080 __env_lock
0010a062 g     O .rwdata	00000002 OSTaskSwHookEn
001073cc g     F .text	00000080 __subdf3
0010a0a0 g     O .rwdata	00000008 alt_alarm_list
0010a02a g     O .rwdata	00000002 OSFlagWidth
00105fbc g     F .text	00000040 _do_ctors
00105ea4 g     F .text	0000009c close
0010b7a8 g     O .bss	00000004 alt_envsem
0010b818 g     O .bss	00000004 OSIdleCtrRun
001004f4 g     F .text	00000008 OSVersion
0010a074 g     O .rwdata	00000002 OSTmrCfgWheelSize
00100228 g     F .text	0000006c alt_load
001035c8 g     F .text	00000030 OS_TaskStkClr
001081f0 g     F .text	00000314 __pack_d
0010a04e g     O .rwdata	00000002 OSTaskCreateEn
001007c0 g     F .text	0000001c OS_EventWaitListInit
00106678 g     F .text	00000004 OSTaskIdleHook
00000000  w      *UND*	00000000 free
001042f8 g     F .text	00000144 OSTaskSuspend
00101244 g     F .text	00000030 OS_TaskIdle
0010a07a g     O .rwdata	00000002 OSTmrTblSize
00102674 g     F .text	00000098 OSQQuery



Disassembly of section .entry:

01000000 <__reset>:
 1000000:	00400434 	movhi	at,16
 1000004:	08404914 	ori	at,at,292
 1000008:	0800683a 	jmp	at
	...

Disassembly of section .exceptions:

01000020 <alt_exception>:
 1000020:	deffed04 	addi	sp,sp,-76
 1000024:	dfc00015 	stw	ra,0(sp)
 1000028:	d8400215 	stw	at,8(sp)
 100002c:	d8800315 	stw	r2,12(sp)
 1000030:	d8c00415 	stw	r3,16(sp)
 1000034:	d9000515 	stw	r4,20(sp)
 1000038:	d9400615 	stw	r5,24(sp)
 100003c:	d9800715 	stw	r6,28(sp)
 1000040:	d9c00815 	stw	r7,32(sp)
 1000044:	000b307a 	rdctl	r5,estatus
 1000048:	da000915 	stw	r8,36(sp)
 100004c:	da400a15 	stw	r9,40(sp)
 1000050:	da800b15 	stw	r10,44(sp)
 1000054:	dac00c15 	stw	r11,48(sp)
 1000058:	db000d15 	stw	r12,52(sp)
 100005c:	db400e15 	stw	r13,56(sp)
 1000060:	db800f15 	stw	r14,60(sp)
 1000064:	dbc01015 	stw	r15,64(sp)
 1000068:	d9401115 	stw	r5,68(sp)
 100006c:	ebffff04 	addi	r15,ea,-4
 1000070:	dbc01215 	stw	r15,72(sp)
 1000074:	0009313a 	rdctl	r4,ipending
 1000078:	2880004c 	andi	r2,r5,1
 100007c:	10000326 	beq	r2,zero,100008c <alt_exception+0x6c>
 1000080:	20000226 	beq	r4,zero,100008c <alt_exception+0x6c>
 1000084:	10000ec0 	call	10000ec <alt_irq_handler>
 1000088:	00000306 	br	1000098 <alt_exception+0x78>
 100008c:	df401215 	stw	ea,72(sp)
 1000090:	e8bfff17 	ldw	r2,-4(ea)
 1000094:	003da03a 	break	0
 1000098:	d9401117 	ldw	r5,68(sp)
 100009c:	df401217 	ldw	ea,72(sp)
 10000a0:	dfc00017 	ldw	ra,0(sp)
 10000a4:	2801707a 	wrctl	estatus,r5
 10000a8:	d8400217 	ldw	at,8(sp)
 10000ac:	d8800317 	ldw	r2,12(sp)
 10000b0:	d8c00417 	ldw	r3,16(sp)
 10000b4:	d9000517 	ldw	r4,20(sp)
 10000b8:	d9400617 	ldw	r5,24(sp)
 10000bc:	d9800717 	ldw	r6,28(sp)
 10000c0:	d9c00817 	ldw	r7,32(sp)
 10000c4:	da000917 	ldw	r8,36(sp)
 10000c8:	da400a17 	ldw	r9,40(sp)
 10000cc:	da800b17 	ldw	r10,44(sp)
 10000d0:	dac00c17 	ldw	r11,48(sp)
 10000d4:	db000d17 	ldw	r12,52(sp)
 10000d8:	db400e17 	ldw	r13,56(sp)
 10000dc:	db800f17 	ldw	r14,60(sp)
 10000e0:	dbc01017 	ldw	r15,64(sp)
 10000e4:	dec01304 	addi	sp,sp,76
 10000e8:	ef80083a 	eret

010000ec <alt_irq_handler>:
 10000ec:	deffff04 	addi	sp,sp,-4
 10000f0:	dfc00015 	stw	ra,0(sp)
 10000f4:	01010000 	call	101000 <OSIntEnter>
 10000f8:	0009313a 	rdctl	r4,ipending
 10000fc:	00c00044 	movi	r3,1
 1000100:	01400474 	movhi	r5,17
 1000104:	297d6c04 	addi	r5,r5,-2640
 1000108:	20c4703a 	and	r2,r4,r3
 100010c:	18c7883a 	add	r3,r3,r3
 1000110:	10000726 	beq	r2,zero,1000130 <alt_irq_handler+0x44>
 1000114:	29000117 	ldw	r4,4(r5)
 1000118:	28800017 	ldw	r2,0(r5)
 100011c:	103ee83a 	callr	r2
 1000120:	0005313a 	rdctl	r2,ipending
 1000124:	10000426 	beq	r2,zero,1000138 <alt_irq_handler+0x4c>
 1000128:	1009883a 	mov	r4,r2
 100012c:	003ff306 	br	10000fc <alt_irq_handler+0x10>
 1000130:	29400204 	addi	r5,r5,8
 1000134:	003ff406 	br	1000108 <alt_irq_handler+0x1c>
 1000138:	dfc00017 	ldw	ra,0(sp)
 100013c:	dec00104 	addi	sp,sp,4
 1000140:	010147c1 	jmpi	10147c <OSIntExit>

Disassembly of section .text:

00100124 <_start>:
  100124:	06c00634 	movhi	sp,24
  100128:	dec00014 	ori	sp,sp,0
  10012c:	06800474 	movhi	gp,17
  100130:	d6880214 	ori	gp,gp,8200
  100134:	00800434 	movhi	r2,16
  100138:	10ade614 	ori	r2,r2,47000
  10013c:	00c00434 	movhi	r3,16
  100140:	18fe1014 	ori	r3,r3,63552
  100144:	10c00326 	beq	r2,r3,100154 <_start+0x30>
  100148:	10000015 	stw	zero,0(r2)
  10014c:	10800104 	addi	r2,r2,4
  100150:	10fffd36 	bltu	r2,r3,100148 <_start+0x24>
  100154:	01002280 	call	100228 <alt_load>
  100158:	01002940 	call	100294 <alt_main>

0010015c <alt_after_alt_main>:
  10015c:	003fff06 	br	10015c <alt_after_alt_main>

00100160 <main>:
  100160:	defffe04 	addi	sp,sp,-8
  100164:	df000115 	stw	fp,4(sp)
  100168:	df000104 	addi	fp,sp,4
  10016c:	00000006 	br	100170 <main+0x10>
  100170:	00a45014 	movui	r2,37184
  100174:	10800037 	ldwio	r2,0(r2)
  100178:	0084303a 	nor	r2,zero,r2
  10017c:	e0bfff05 	stb	r2,-4(fp)
  100180:	e0bfff03 	ldbu	r2,-4(fp)
  100184:	1080008c 	andi	r2,r2,2
  100188:	1005003a 	cmpeq	r2,r2,zero
  10018c:	1000041e 	bne	r2,zero,1001a0 <main+0x40>
  100190:	00e43c14 	movui	r3,37104
  100194:	00800804 	movi	r2,32
  100198:	18800035 	stwio	r2,0(r3)
  10019c:	00000306 	br	1001ac <main+0x4c>
  1001a0:	00e43d14 	movui	r3,37108
  1001a4:	00800804 	movi	r2,32
  1001a8:	18800035 	stwio	r2,0(r3)
  1001ac:	e0bfff03 	ldbu	r2,-4(fp)
  1001b0:	1080010c 	andi	r2,r2,4
  1001b4:	1005003a 	cmpeq	r2,r2,zero
  1001b8:	1000041e 	bne	r2,zero,1001cc <main+0x6c>
  1001bc:	00e43c14 	movui	r3,37104
  1001c0:	00801004 	movi	r2,64
  1001c4:	18800035 	stwio	r2,0(r3)
  1001c8:	00000306 	br	1001d8 <main+0x78>
  1001cc:	00e43d14 	movui	r3,37108
  1001d0:	00801004 	movi	r2,64
  1001d4:	18800035 	stwio	r2,0(r3)
  1001d8:	e0bfff03 	ldbu	r2,-4(fp)
  1001dc:	1080020c 	andi	r2,r2,8
  1001e0:	1005003a 	cmpeq	r2,r2,zero
  1001e4:	1000041e 	bne	r2,zero,1001f8 <main+0x98>
  1001e8:	00e43c14 	movui	r3,37104
  1001ec:	00802004 	movi	r2,128
  1001f0:	18800035 	stwio	r2,0(r3)
  1001f4:	003fde06 	br	100170 <main+0x10>
  1001f8:	00e43d14 	movui	r3,37108
  1001fc:	00802004 	movi	r2,128
  100200:	18800035 	stwio	r2,0(r3)
  100204:	003fda06 	br	100170 <main+0x10>

00100208 <alt_load_section>:
  100208:	2900051e 	bne	r5,r4,100220 <alt_load_section+0x18>
  10020c:	f800283a 	ret
  100210:	20800017 	ldw	r2,0(r4)
  100214:	21000104 	addi	r4,r4,4
  100218:	28800015 	stw	r2,0(r5)
  10021c:	29400104 	addi	r5,r5,4
  100220:	29bffb1e 	bne	r5,r6,100210 <alt_load_section+0x8>
  100224:	f800283a 	ret

00100228 <alt_load>:
  100228:	deffff04 	addi	sp,sp,-4
  10022c:	01000474 	movhi	r4,17
  100230:	21282c04 	addi	r4,r4,-24400
  100234:	01400474 	movhi	r5,17
  100238:	29627204 	addi	r5,r5,-30264
  10023c:	01800474 	movhi	r6,17
  100240:	31a82c04 	addi	r6,r6,-24400
  100244:	dfc00015 	stw	ra,0(sp)
  100248:	01002080 	call	100208 <alt_load_section>
  10024c:	01000434 	movhi	r4,16
  100250:	21000004 	addi	r4,r4,0
  100254:	01404034 	movhi	r5,256
  100258:	29400804 	addi	r5,r5,32
  10025c:	01804034 	movhi	r6,256
  100260:	31805104 	addi	r6,r6,324
  100264:	01002080 	call	100208 <alt_load_section>
  100268:	01000474 	movhi	r4,17
  10026c:	2121ca04 	addi	r4,r4,-30936
  100270:	01400474 	movhi	r5,17
  100274:	2961ca04 	addi	r5,r5,-30936
  100278:	01800474 	movhi	r6,17
  10027c:	31a27204 	addi	r6,r6,-30264
  100280:	01002080 	call	100208 <alt_load_section>
  100284:	0105f400 	call	105f40 <alt_dcache_flush_all>
  100288:	dfc00017 	ldw	ra,0(sp)
  10028c:	dec00104 	addi	sp,sp,4
  100290:	01060ac1 	jmpi	1060ac <alt_icache_flush_all>

00100294 <alt_main>:
  100294:	defffd04 	addi	sp,sp,-12
  100298:	0009883a 	mov	r4,zero
  10029c:	dfc00215 	stw	ra,8(sp)
  1002a0:	dc400115 	stw	r17,4(sp)
  1002a4:	dc000015 	stw	r16,0(sp)
  1002a8:	04400044 	movi	r17,1
  1002ac:	01053e80 	call	1053e8 <alt_irq_init>
  1002b0:	0100a100 	call	100a10 <OSInit>
  1002b4:	8809883a 	mov	r4,r17
  1002b8:	01030900 	call	103090 <OSSemCreate>
  1002bc:	00c00474 	movhi	r3,17
  1002c0:	18edea04 	addi	r3,r3,-18520
  1002c4:	8809883a 	mov	r4,r17
  1002c8:	18800015 	stw	r2,0(r3)
  1002cc:	01030900 	call	103090 <OSSemCreate>
  1002d0:	00c00474 	movhi	r3,17
  1002d4:	18edec04 	addi	r3,r3,-18512
  1002d8:	8809883a 	mov	r4,r17
  1002dc:	18800015 	stw	r2,0(r3)
  1002e0:	01030900 	call	103090 <OSSemCreate>
  1002e4:	00c00474 	movhi	r3,17
  1002e8:	18ee0904 	addi	r3,r3,-18396
  1002ec:	18800015 	stw	r2,0(r3)
  1002f0:	01053540 	call	105354 <alt_sys_init>
  1002f4:	01000474 	movhi	r4,17
  1002f8:	2121ca04 	addi	r4,r4,-30936
  1002fc:	200b883a 	mov	r5,r4
  100300:	200d883a 	mov	r6,r4
  100304:	01062400 	call	106240 <alt_io_redirect>
  100308:	0105fbc0 	call	105fbc <_do_ctors>
  10030c:	01000434 	movhi	r4,16
  100310:	2117ff04 	addi	r4,r4,24572
  100314:	01069c40 	call	1069c4 <atexit>
  100318:	d165e517 	ldw	r5,-26732(gp)
  10031c:	d1a5e617 	ldw	r6,-26728(gp)
  100320:	d125e417 	ldw	r4,-26736(gp)
  100324:	01001600 	call	100160 <main>
  100328:	1021883a 	mov	r16,r2
  10032c:	8809883a 	mov	r4,r17
  100330:	0105ea40 	call	105ea4 <close>
  100334:	8009883a 	mov	r4,r16
  100338:	01069d80 	call	1069d8 <exit>

0010033c <__env_unlock>:
  10033c:	d0a5e717 	ldw	r2,-26724(gp)
  100340:	10ffffc4 	addi	r3,r2,-1
  100344:	10000626 	beq	r2,zero,100360 <__env_unlock+0x24>
  100348:	d0e5e715 	stw	r3,-26724(gp)
  10034c:	1800041e 	bne	r3,zero,100360 <__env_unlock+0x24>
  100350:	d125e817 	ldw	r4,-26720(gp)
  100354:	00bfffc4 	movi	r2,-1
  100358:	d0a00015 	stw	r2,-32768(gp)
  10035c:	01034c41 	jmpi	1034c4 <OSSemPost>
  100360:	f800283a 	ret

00100364 <__env_lock>:
  100364:	deffe104 	addi	sp,sp,-124
  100368:	d9400204 	addi	r5,sp,8
  10036c:	01003fc4 	movi	r4,255
  100370:	dfc01e15 	stw	ra,120(sp)
  100374:	dc001d15 	stw	r16,116(sp)
  100378:	01035f80 	call	1035f8 <OSTaskQuery>
  10037c:	10803fcc 	andi	r2,r2,255
  100380:	d9400084 	addi	r5,sp,2
  100384:	1000131e 	bne	r2,zero,1003d4 <__env_lock+0x70>
  100388:	d125e817 	ldw	r4,-26720(gp)
  10038c:	d8000005 	stb	zero,0(sp)
  100390:	dc000e83 	ldbu	r16,58(sp)
  100394:	01035600 	call	103560 <OSSemQuery>
  100398:	d88001c3 	ldbu	r2,7(sp)
  10039c:	000b883a 	mov	r5,zero
  1003a0:	d80d883a 	mov	r6,sp
  1003a4:	10000626 	beq	r2,zero,1003c0 <__env_lock+0x5c>
  1003a8:	d0a00017 	ldw	r2,-32768(gp)
  1003ac:	8080041e 	bne	r16,r2,1003c0 <__env_lock+0x5c>
  1003b0:	d0a5e717 	ldw	r2,-26724(gp)
  1003b4:	10800044 	addi	r2,r2,1
  1003b8:	d0a5e715 	stw	r2,-26724(gp)
  1003bc:	00000506 	br	1003d4 <__env_lock+0x70>
  1003c0:	d125e817 	ldw	r4,-26720(gp)
  1003c4:	01032700 	call	103270 <OSSemPend>
  1003c8:	00800044 	movi	r2,1
  1003cc:	d0a5e715 	stw	r2,-26724(gp)
  1003d0:	d4200015 	stw	r16,-32768(gp)
  1003d4:	dfc01e17 	ldw	ra,120(sp)
  1003d8:	dc001d17 	ldw	r16,116(sp)
  1003dc:	dec01f04 	addi	sp,sp,124
  1003e0:	f800283a 	ret

001003e4 <__malloc_unlock>:
  1003e4:	00800474 	movhi	r2,17
  1003e8:	10adf004 	addi	r2,r2,-18496
  1003ec:	10c00003 	ldbu	r3,0(r2)
  1003f0:	00800044 	movi	r2,1
  1003f4:	1880111e 	bne	r3,r2,10043c <__malloc_unlock+0x58>
  1003f8:	0009303a 	rdctl	r4,status
  1003fc:	00bfff84 	movi	r2,-2
  100400:	2084703a 	and	r2,r4,r2
  100404:	1001703a 	wrctl	status,r2
  100408:	d0a5e917 	ldw	r2,-26716(gp)
  10040c:	10c7c83a 	sub	r3,r2,r3
  100410:	1000021e 	bne	r2,zero,10041c <__malloc_unlock+0x38>
  100414:	2001703a 	wrctl	status,r4
  100418:	f800283a 	ret
  10041c:	d0e5e915 	stw	r3,-26716(gp)
  100420:	1800051e 	bne	r3,zero,100438 <__malloc_unlock+0x54>
  100424:	00bfffc4 	movi	r2,-1
  100428:	d0a00115 	stw	r2,-32764(gp)
  10042c:	2001703a 	wrctl	status,r4
  100430:	d125ea17 	ldw	r4,-26712(gp)
  100434:	01034c41 	jmpi	1034c4 <OSSemPost>
  100438:	2001703a 	wrctl	status,r4
  10043c:	f800283a 	ret

00100440 <__malloc_lock>:
  100440:	deffe004 	addi	sp,sp,-128
  100444:	00800474 	movhi	r2,17
  100448:	10adf004 	addi	r2,r2,-18496
  10044c:	dfc01f15 	stw	ra,124(sp)
  100450:	dc401e15 	stw	r17,120(sp)
  100454:	dc001d15 	stw	r16,116(sp)
  100458:	14400003 	ldbu	r17,0(r2)
  10045c:	00800044 	movi	r2,1
  100460:	d9400204 	addi	r5,sp,8
  100464:	01003fc4 	movi	r4,255
  100468:	88801d1e 	bne	r17,r2,1004e0 <__malloc_lock+0xa0>
  10046c:	01035f80 	call	1035f8 <OSTaskQuery>
  100470:	10803fcc 	andi	r2,r2,255
  100474:	d9400084 	addi	r5,sp,2
  100478:	1000191e 	bne	r2,zero,1004e0 <__malloc_lock+0xa0>
  10047c:	d125ea17 	ldw	r4,-26712(gp)
  100480:	dc000e83 	ldbu	r16,58(sp)
  100484:	d8000005 	stb	zero,0(sp)
  100488:	01035600 	call	103560 <OSSemQuery>
  10048c:	0007303a 	rdctl	r3,status
  100490:	00bfff84 	movi	r2,-2
  100494:	1884703a 	and	r2,r3,r2
  100498:	1001703a 	wrctl	status,r2
  10049c:	d880008b 	ldhu	r2,2(sp)
  1004a0:	1000071e 	bne	r2,zero,1004c0 <__malloc_lock+0x80>
  1004a4:	d0a00117 	ldw	r2,-32764(gp)
  1004a8:	8080051e 	bne	r16,r2,1004c0 <__malloc_lock+0x80>
  1004ac:	d0a5e917 	ldw	r2,-26716(gp)
  1004b0:	1445883a 	add	r2,r2,r17
  1004b4:	d0a5e915 	stw	r2,-26716(gp)
  1004b8:	1801703a 	wrctl	status,r3
  1004bc:	00000806 	br	1004e0 <__malloc_lock+0xa0>
  1004c0:	1801703a 	wrctl	status,r3
  1004c4:	d125ea17 	ldw	r4,-26712(gp)
  1004c8:	000b883a 	mov	r5,zero
  1004cc:	d80d883a 	mov	r6,sp
  1004d0:	01032700 	call	103270 <OSSemPend>
  1004d4:	00800044 	movi	r2,1
  1004d8:	d0a5e915 	stw	r2,-26716(gp)
  1004dc:	d4200115 	stw	r16,-32764(gp)
  1004e0:	dfc01f17 	ldw	ra,124(sp)
  1004e4:	dc401e17 	ldw	r17,120(sp)
  1004e8:	dc001d17 	ldw	r16,116(sp)
  1004ec:	dec02004 	addi	sp,sp,128
  1004f0:	f800283a 	ret

001004f4 <OSVersion>:
  1004f4:	00804784 	movi	r2,286
  1004f8:	f800283a 	ret

001004fc <OS_Dummy>:
  1004fc:	f800283a 	ret

00100500 <OS_EventTaskWait>:
  100500:	d0a5fe17 	ldw	r2,-26632(gp)
  100504:	10c00d03 	ldbu	r3,52(r2)
  100508:	11000715 	stw	r4,28(r2)
  10050c:	11800d43 	ldbu	r6,53(r2)
  100510:	1907883a 	add	r3,r3,r4
  100514:	18c00204 	addi	r3,r3,8
  100518:	188000c3 	ldbu	r2,3(r3)
  10051c:	21400283 	ldbu	r5,10(r4)
  100520:	1184b03a 	or	r2,r2,r6
  100524:	188000c5 	stb	r2,3(r3)
  100528:	d0a5fe17 	ldw	r2,-26632(gp)
  10052c:	d0e5fb44 	addi	r3,gp,-26643
  100530:	10800d83 	ldbu	r2,54(r2)
  100534:	288ab03a 	or	r5,r5,r2
  100538:	21400285 	stb	r5,10(r4)
  10053c:	d165fe17 	ldw	r5,-26632(gp)
  100540:	29000d03 	ldbu	r4,52(r5)
  100544:	28800d43 	ldbu	r2,53(r5)
  100548:	20c9883a 	add	r4,r4,r3
  10054c:	20c00003 	ldbu	r3,0(r4)
  100550:	0084303a 	nor	r2,zero,r2
  100554:	10c4703a 	and	r2,r2,r3
  100558:	10c03fcc 	andi	r3,r2,255
  10055c:	18c0201c 	xori	r3,r3,128
  100560:	18ffe004 	addi	r3,r3,-128
  100564:	20800005 	stb	r2,0(r4)
  100568:	1800051e 	bne	r3,zero,100580 <OS_EventTaskWait+0x80>
  10056c:	28800d83 	ldbu	r2,54(r5)
  100570:	d0e5fb03 	ldbu	r3,-26644(gp)
  100574:	0084303a 	nor	r2,zero,r2
  100578:	10c4703a 	and	r2,r2,r3
  10057c:	d0a5fb05 	stb	r2,-26644(gp)
  100580:	f800283a 	ret

00100584 <OS_EventTaskWaitMulti>:
  100584:	d0a5fe17 	ldw	r2,-26632(gp)
  100588:	200f883a 	mov	r7,r4
  10058c:	10000715 	stw	zero,28(r2)
  100590:	21800017 	ldw	r6,0(r4)
  100594:	11000815 	stw	r4,32(r2)
  100598:	00000d06 	br	1005d0 <OS_EventTaskWaitMulti+0x4c>
  10059c:	28c00d03 	ldbu	r3,52(r5)
  1005a0:	29400d43 	ldbu	r5,53(r5)
  1005a4:	31000283 	ldbu	r4,10(r6)
  1005a8:	1987883a 	add	r3,r3,r6
  1005ac:	18c00204 	addi	r3,r3,8
  1005b0:	188000c3 	ldbu	r2,3(r3)
  1005b4:	1144b03a 	or	r2,r2,r5
  1005b8:	188000c5 	stb	r2,3(r3)
  1005bc:	d0a5fe17 	ldw	r2,-26632(gp)
  1005c0:	10800d83 	ldbu	r2,54(r2)
  1005c4:	2088b03a 	or	r4,r4,r2
  1005c8:	31000285 	stb	r4,10(r6)
  1005cc:	39800017 	ldw	r6,0(r7)
  1005d0:	39c00104 	addi	r7,r7,4
  1005d4:	d165fe17 	ldw	r5,-26632(gp)
  1005d8:	303ff01e 	bne	r6,zero,10059c <OS_EventTaskWaitMulti+0x18>
  1005dc:	29000d03 	ldbu	r4,52(r5)
  1005e0:	d0e5fb44 	addi	r3,gp,-26643
  1005e4:	28800d43 	ldbu	r2,53(r5)
  1005e8:	20c9883a 	add	r4,r4,r3
  1005ec:	20c00003 	ldbu	r3,0(r4)
  1005f0:	0084303a 	nor	r2,zero,r2
  1005f4:	10c4703a 	and	r2,r2,r3
  1005f8:	10c03fcc 	andi	r3,r2,255
  1005fc:	18c0201c 	xori	r3,r3,128
  100600:	18ffe004 	addi	r3,r3,-128
  100604:	20800005 	stb	r2,0(r4)
  100608:	1800051e 	bne	r3,zero,100620 <OS_EventTaskWaitMulti+0x9c>
  10060c:	28800d83 	ldbu	r2,54(r5)
  100610:	d0e5fb03 	ldbu	r3,-26644(gp)
  100614:	0084303a 	nor	r2,zero,r2
  100618:	10c4703a 	and	r2,r2,r3
  10061c:	d0a5fb05 	stb	r2,-26644(gp)
  100620:	f800283a 	ret

00100624 <OS_EventTaskRemove>:
  100624:	20c00d03 	ldbu	r3,52(r4)
  100628:	20800d43 	ldbu	r2,53(r4)
  10062c:	200d883a 	mov	r6,r4
  100630:	1947883a 	add	r3,r3,r5
  100634:	18c00204 	addi	r3,r3,8
  100638:	190000c3 	ldbu	r4,3(r3)
  10063c:	0084303a 	nor	r2,zero,r2
  100640:	1104703a 	and	r2,r2,r4
  100644:	11003fcc 	andi	r4,r2,255
  100648:	2100201c 	xori	r4,r4,128
  10064c:	213fe004 	addi	r4,r4,-128
  100650:	188000c5 	stb	r2,3(r3)
  100654:	2000051e 	bne	r4,zero,10066c <OS_EventTaskRemove+0x48>
  100658:	30800d83 	ldbu	r2,54(r6)
  10065c:	28c00283 	ldbu	r3,10(r5)
  100660:	0084303a 	nor	r2,zero,r2
  100664:	10c4703a 	and	r2,r2,r3
  100668:	28800285 	stb	r2,10(r5)
  10066c:	f800283a 	ret

00100670 <OS_EventTaskRemoveMulti>:
  100670:	20c00d83 	ldbu	r3,54(r4)
  100674:	20800d43 	ldbu	r2,53(r4)
  100678:	22400d03 	ldbu	r9,52(r4)
  10067c:	29000017 	ldw	r4,0(r5)
  100680:	0090303a 	nor	r8,zero,r2
  100684:	00ce303a 	nor	r7,zero,r3
  100688:	00000b06 	br	1006b8 <OS_EventTaskRemoveMulti+0x48>
  10068c:	308000c3 	ldbu	r2,3(r6)
  100690:	4084703a 	and	r2,r8,r2
  100694:	10c03fcc 	andi	r3,r2,255
  100698:	18c0201c 	xori	r3,r3,128
  10069c:	18ffe004 	addi	r3,r3,-128
  1006a0:	308000c5 	stb	r2,3(r6)
  1006a4:	1800031e 	bne	r3,zero,1006b4 <OS_EventTaskRemoveMulti+0x44>
  1006a8:	20800283 	ldbu	r2,10(r4)
  1006ac:	3884703a 	and	r2,r7,r2
  1006b0:	20800285 	stb	r2,10(r4)
  1006b4:	29000017 	ldw	r4,0(r5)
  1006b8:	4905883a 	add	r2,r9,r4
  1006bc:	11800204 	addi	r6,r2,8
  1006c0:	29400104 	addi	r5,r5,4
  1006c4:	203ff11e 	bne	r4,zero,10068c <OS_EventTaskRemoveMulti+0x1c>
  1006c8:	f800283a 	ret

001006cc <OS_EventTaskRdy>:
  1006cc:	defffc04 	addi	sp,sp,-16
  1006d0:	dc800215 	stw	r18,8(sp)
  1006d4:	dc400115 	stw	r17,4(sp)
  1006d8:	dc000015 	stw	r16,0(sp)
  1006dc:	dfc00315 	stw	ra,12(sp)
  1006e0:	20800283 	ldbu	r2,10(r4)
  1006e4:	02400474 	movhi	r9,17
  1006e8:	4a61d684 	addi	r9,r9,-30886
  1006ec:	2025883a 	mov	r18,r4
  1006f0:	1245883a 	add	r2,r2,r9
  1006f4:	11000003 	ldbu	r4,0(r2)
  1006f8:	018c303a 	nor	r6,zero,r6
  1006fc:	22003fcc 	andi	r8,r4,255
  100700:	4485883a 	add	r2,r8,r18
  100704:	10c002c3 	ldbu	r3,11(r2)
  100708:	d0a5fb44 	addi	r2,gp,-26643
  10070c:	200890fa 	slli	r4,r4,3
  100710:	1a47883a 	add	r3,r3,r9
  100714:	4091883a 	add	r8,r8,r2
  100718:	18800003 	ldbu	r2,0(r3)
  10071c:	00c00474 	movhi	r3,17
  100720:	18fd5704 	addi	r3,r3,-2724
  100724:	2089883a 	add	r4,r4,r2
  100728:	24403fcc 	andi	r17,r4,255
  10072c:	8c45883a 	add	r2,r17,r17
  100730:	1085883a 	add	r2,r2,r2
  100734:	10c5883a 	add	r2,r2,r3
  100738:	14000017 	ldw	r16,0(r2)
  10073c:	80800c03 	ldbu	r2,48(r16)
  100740:	81400915 	stw	r5,36(r16)
  100744:	8009883a 	mov	r4,r16
  100748:	308c703a 	and	r6,r6,r2
  10074c:	30803fcc 	andi	r2,r6,255
  100750:	1080020c 	andi	r2,r2,8
  100754:	81c00c45 	stb	r7,49(r16)
  100758:	81800c05 	stb	r6,48(r16)
  10075c:	900b883a 	mov	r5,r18
  100760:	80000b8d 	sth	zero,46(r16)
  100764:	1000081e 	bne	r2,zero,100788 <OS_EventTaskRdy+0xbc>
  100768:	81800d83 	ldbu	r6,54(r16)
  10076c:	d0a5fb03 	ldbu	r2,-26644(gp)
  100770:	40c00003 	ldbu	r3,0(r8)
  100774:	1184b03a 	or	r2,r2,r6
  100778:	d0a5fb05 	stb	r2,-26644(gp)
  10077c:	80800d43 	ldbu	r2,53(r16)
  100780:	1886b03a 	or	r3,r3,r2
  100784:	40c00005 	stb	r3,0(r8)
  100788:	01006240 	call	100624 <OS_EventTaskRemove>
  10078c:	80800817 	ldw	r2,32(r16)
  100790:	8009883a 	mov	r4,r16
  100794:	100b883a 	mov	r5,r2
  100798:	10000226 	beq	r2,zero,1007a4 <OS_EventTaskRdy+0xd8>
  10079c:	01006700 	call	100670 <OS_EventTaskRemoveMulti>
  1007a0:	84800715 	stw	r18,28(r16)
  1007a4:	8805883a 	mov	r2,r17
  1007a8:	dfc00317 	ldw	ra,12(sp)
  1007ac:	dc800217 	ldw	r18,8(sp)
  1007b0:	dc400117 	ldw	r17,4(sp)
  1007b4:	dc000017 	ldw	r16,0(sp)
  1007b8:	dec00404 	addi	sp,sp,16
  1007bc:	f800283a 	ret

001007c0 <OS_EventWaitListInit>:
  1007c0:	20000285 	stb	zero,10(r4)
  1007c4:	210002c4 	addi	r4,r4,11
  1007c8:	20000005 	stb	zero,0(r4)
  1007cc:	21000044 	addi	r4,r4,1
  1007d0:	20000045 	stb	zero,1(r4)
  1007d4:	20000005 	stb	zero,0(r4)
  1007d8:	f800283a 	ret

001007dc <OS_MemClr>:
  1007dc:	00000206 	br	1007e8 <OS_MemClr+0xc>
  1007e0:	20000005 	stb	zero,0(r4)
  1007e4:	21000044 	addi	r4,r4,1
  1007e8:	28bfffcc 	andi	r2,r5,65535
  1007ec:	297fffc4 	addi	r5,r5,-1
  1007f0:	103ffb1e 	bne	r2,zero,1007e0 <OS_MemClr+0x4>
  1007f4:	f800283a 	ret

001007f8 <OS_MemCopy>:
  1007f8:	00000406 	br	10080c <OS_MemCopy+0x14>
  1007fc:	28800003 	ldbu	r2,0(r5)
  100800:	29400044 	addi	r5,r5,1
  100804:	20800005 	stb	r2,0(r4)
  100808:	21000044 	addi	r4,r4,1
  10080c:	30bfffcc 	andi	r2,r6,65535
  100810:	31bfffc4 	addi	r6,r6,-1
  100814:	103ff91e 	bne	r2,zero,1007fc <OS_MemCopy+0x4>
  100818:	f800283a 	ret

0010081c <OS_StrCopy>:
  10081c:	2007883a 	mov	r3,r4
  100820:	00000206 	br	10082c <OS_StrCopy+0x10>
  100824:	18800005 	stb	r2,0(r3)
  100828:	18c00044 	addi	r3,r3,1
  10082c:	28800003 	ldbu	r2,0(r5)
  100830:	29400044 	addi	r5,r5,1
  100834:	103ffb1e 	bne	r2,zero,100824 <OS_StrCopy+0x8>
  100838:	1905c83a 	sub	r2,r3,r4
  10083c:	10803fcc 	andi	r2,r2,255
  100840:	18000005 	stb	zero,0(r3)
  100844:	f800283a 	ret

00100848 <OS_StrLen>:
  100848:	2007883a 	mov	r3,r4
  10084c:	00000106 	br	100854 <OS_StrLen+0xc>
  100850:	18c00044 	addi	r3,r3,1
  100854:	18800003 	ldbu	r2,0(r3)
  100858:	103ffd1e 	bne	r2,zero,100850 <OS_StrLen+0x8>
  10085c:	1905c83a 	sub	r2,r3,r4
  100860:	10803fcc 	andi	r2,r2,255
  100864:	f800283a 	ret

00100868 <OS_TaskStatStkChk>:
  100868:	defffb04 	addi	sp,sp,-20
  10086c:	dc400315 	stw	r17,12(sp)
  100870:	dc000215 	stw	r16,8(sp)
  100874:	dfc00415 	stw	ra,16(sp)
  100878:	0021883a 	mov	r16,zero
  10087c:	04400474 	movhi	r17,17
  100880:	8c7d5704 	addi	r17,r17,-2724
  100884:	8009883a 	mov	r4,r16
  100888:	d80b883a 	mov	r5,sp
  10088c:	01042080 	call	104208 <OSTaskStkChk>
  100890:	10803fcc 	andi	r2,r2,255
  100894:	84000044 	addi	r16,r16,1
  100898:	10000c1e 	bne	r2,zero,1008cc <OS_TaskStatStkChk+0x64>
  10089c:	89000017 	ldw	r4,0(r17)
  1008a0:	20000a26 	beq	r4,zero,1008cc <OS_TaskStatStkChk+0x64>
  1008a4:	00800044 	movi	r2,1
  1008a8:	20800826 	beq	r4,r2,1008cc <OS_TaskStatStkChk+0x64>
  1008ac:	20800317 	ldw	r2,12(r4)
  1008b0:	20c00217 	ldw	r3,8(r4)
  1008b4:	1085883a 	add	r2,r2,r2
  1008b8:	1085883a 	add	r2,r2,r2
  1008bc:	1887883a 	add	r3,r3,r2
  1008c0:	d8800117 	ldw	r2,4(sp)
  1008c4:	20c01115 	stw	r3,68(r4)
  1008c8:	20801215 	stw	r2,72(r4)
  1008cc:	00800544 	movi	r2,21
  1008d0:	8c400104 	addi	r17,r17,4
  1008d4:	80bfeb1e 	bne	r16,r2,100884 <OS_TaskStatStkChk+0x1c>
  1008d8:	dfc00417 	ldw	ra,16(sp)
  1008dc:	dc400317 	ldw	r17,12(sp)
  1008e0:	dc000217 	ldw	r16,8(sp)
  1008e4:	dec00504 	addi	sp,sp,20
  1008e8:	f800283a 	ret

001008ec <OS_Sched>:
  1008ec:	defffe04 	addi	sp,sp,-8
  1008f0:	dfc00115 	stw	ra,4(sp)
  1008f4:	dc000015 	stw	r16,0(sp)
  1008f8:	0021303a 	rdctl	r16,status
  1008fc:	00bfff84 	movi	r2,-2
  100900:	8084703a 	and	r2,r16,r2
  100904:	1001703a 	wrctl	status,r2
  100908:	d0a5fd03 	ldbu	r2,-26636(gp)
  10090c:	1000201e 	bne	r2,zero,100990 <OS_Sched+0xa4>
  100910:	d0a5ec03 	ldbu	r2,-26704(gp)
  100914:	01400474 	movhi	r5,17
  100918:	2961d684 	addi	r5,r5,-30886
  10091c:	10001c1e 	bne	r2,zero,100990 <OS_Sched+0xa4>
  100920:	d0a5fb03 	ldbu	r2,-26644(gp)
  100924:	d0e5fb44 	addi	r3,gp,-26643
  100928:	d1a5f0c3 	ldbu	r6,-26685(gp)
  10092c:	1145883a 	add	r2,r2,r5
  100930:	11000003 	ldbu	r4,0(r2)
  100934:	20c5883a 	add	r2,r4,r3
  100938:	10800003 	ldbu	r2,0(r2)
  10093c:	200890fa 	slli	r4,r4,3
  100940:	00c00474 	movhi	r3,17
  100944:	18fd5704 	addi	r3,r3,-2724
  100948:	1145883a 	add	r2,r2,r5
  10094c:	10800003 	ldbu	r2,0(r2)
  100950:	2089883a 	add	r4,r4,r2
  100954:	21403fcc 	andi	r5,r4,255
  100958:	2945883a 	add	r2,r5,r5
  10095c:	1085883a 	add	r2,r2,r2
  100960:	10c5883a 	add	r2,r2,r3
  100964:	d125f085 	stb	r4,-26686(gp)
  100968:	29800926 	beq	r5,r6,100990 <OS_Sched+0xa4>
  10096c:	10800017 	ldw	r2,0(r2)
  100970:	d125f317 	ldw	r4,-26676(gp)
  100974:	10c00e17 	ldw	r3,56(r2)
  100978:	21000044 	addi	r4,r4,1
  10097c:	d0a5f915 	stw	r2,-26652(gp)
  100980:	18c00044 	addi	r3,r3,1
  100984:	10c00e15 	stw	r3,56(r2)
  100988:	d125f315 	stw	r4,-26676(gp)
  10098c:	010658c0 	call	10658c <OSCtxSw>
  100990:	8001703a 	wrctl	status,r16
  100994:	dfc00117 	ldw	ra,4(sp)
  100998:	dc000017 	ldw	r16,0(sp)
  10099c:	dec00204 	addi	sp,sp,8
  1009a0:	f800283a 	ret

001009a4 <OSStart>:
  1009a4:	d0a5ee03 	ldbu	r2,-26696(gp)
  1009a8:	01400474 	movhi	r5,17
  1009ac:	2961d684 	addi	r5,r5,-30886
  1009b0:	1000161e 	bne	r2,zero,100a0c <OSStart+0x68>
  1009b4:	d0a5fb03 	ldbu	r2,-26644(gp)
  1009b8:	d0e5fb44 	addi	r3,gp,-26643
  1009bc:	1145883a 	add	r2,r2,r5
  1009c0:	11000003 	ldbu	r4,0(r2)
  1009c4:	20c5883a 	add	r2,r4,r3
  1009c8:	10800003 	ldbu	r2,0(r2)
  1009cc:	200890fa 	slli	r4,r4,3
  1009d0:	00c00474 	movhi	r3,17
  1009d4:	18fd5704 	addi	r3,r3,-2724
  1009d8:	1145883a 	add	r2,r2,r5
  1009dc:	10800003 	ldbu	r2,0(r2)
  1009e0:	2089883a 	add	r4,r4,r2
  1009e4:	20803fcc 	andi	r2,r4,255
  1009e8:	1085883a 	add	r2,r2,r2
  1009ec:	1085883a 	add	r2,r2,r2
  1009f0:	10c5883a 	add	r2,r2,r3
  1009f4:	10800017 	ldw	r2,0(r2)
  1009f8:	d125f085 	stb	r4,-26686(gp)
  1009fc:	d125f0c5 	stb	r4,-26685(gp)
  100a00:	d0a5fe15 	stw	r2,-26632(gp)
  100a04:	d0a5f915 	stw	r2,-26652(gp)
  100a08:	01066181 	jmpi	106618 <OSStartHighRdy>
  100a0c:	f800283a 	ret

00100a10 <OSInit>:
  100a10:	defff704 	addi	sp,sp,-36
  100a14:	dfc00815 	stw	ra,32(sp)
  100a18:	dc000615 	stw	r16,24(sp)
  100a1c:	dc400715 	stw	r17,28(sp)
  100a20:	010666c0 	call	10666c <OSInitHookBegin>
  100a24:	d0a5fb44 	addi	r2,gp,-26643
  100a28:	10000085 	stb	zero,2(r2)
  100a2c:	10000045 	stb	zero,1(r2)
  100a30:	d0260015 	stw	zero,-26624(gp)
  100a34:	01000474 	movhi	r4,17
  100a38:	213c1304 	addi	r4,r4,-4020
  100a3c:	01414404 	movi	r5,1296
  100a40:	d025fd05 	stb	zero,-26636(gp)
  100a44:	d025ec05 	stb	zero,-26704(gp)
  100a48:	d025f745 	stb	zero,-26659(gp)
  100a4c:	d025ee05 	stb	zero,-26696(gp)
  100a50:	d025f315 	stw	zero,-26676(gp)
  100a54:	d025ef15 	stw	zero,-26692(gp)
  100a58:	d0260415 	stw	zero,-26608(gp)
  100a5c:	d025f515 	stw	zero,-26668(gp)
  100a60:	d0260305 	stb	zero,-26612(gp)
  100a64:	d025fb05 	stb	zero,-26644(gp)
  100a68:	d025fb45 	stb	zero,-26643(gp)
  100a6c:	d025f0c5 	stb	zero,-26685(gp)
  100a70:	d025f085 	stb	zero,-26686(gp)
  100a74:	d025f915 	stw	zero,-26652(gp)
  100a78:	d025fe15 	stw	zero,-26632(gp)
  100a7c:	01007dc0 	call	1007dc <OS_MemClr>
  100a80:	01000474 	movhi	r4,17
  100a84:	213d5704 	addi	r4,r4,-2724
  100a88:	01401504 	movi	r5,84
  100a8c:	01007dc0 	call	1007dc <OS_MemClr>
  100a90:	00800474 	movhi	r2,17
  100a94:	10bc2e04 	addi	r2,r2,-3912
  100a98:	04000fc4 	movi	r16,63
  100a9c:	10c12904 	addi	r3,r2,1188
  100aa0:	10bfea15 	stw	r2,-88(r2)
  100aa4:	143ff805 	stb	r16,-32(r2)
  100aa8:	103ff845 	stb	zero,-31(r2)
  100aac:	10801b04 	addi	r2,r2,108
  100ab0:	10fffb1e 	bne	r2,r3,100aa0 <OSInit+0x90>
  100ab4:	10febc04 	addi	r3,r2,-1296
  100ab8:	10bfe504 	addi	r2,r2,-108
  100abc:	10001345 	stb	zero,77(r2)
  100ac0:	d0e5f615 	stw	r3,-26664(gp)
  100ac4:	10000515 	stw	zero,20(r2)
  100ac8:	14001305 	stb	r16,76(r2)
  100acc:	01000474 	movhi	r4,17
  100ad0:	21394304 	addi	r4,r4,-6900
  100ad4:	0142d004 	movi	r5,2880
  100ad8:	d025f115 	stw	zero,-26684(gp)
  100adc:	01007dc0 	call	1007dc <OS_MemClr>
  100ae0:	01000474 	movhi	r4,17
  100ae4:	21394f04 	addi	r4,r4,-6852
  100ae8:	800b883a 	mov	r5,r16
  100aec:	2082c404 	addi	r2,r4,2832
  100af0:	203ff405 	stb	zero,-48(r4)
  100af4:	213ff515 	stw	r4,-44(r4)
  100af8:	217ff785 	stb	r5,-34(r4)
  100afc:	203ff7c5 	stb	zero,-33(r4)
  100b00:	21000c04 	addi	r4,r4,48
  100b04:	20bffa1e 	bne	r4,r2,100af0 <OSInit+0xe0>
  100b08:	20bff404 	addi	r2,r4,-48
  100b0c:	20fd3004 	addi	r3,r4,-2880
  100b10:	11400385 	stb	r5,14(r2)
  100b14:	100003c5 	stb	zero,15(r2)
  100b18:	d0e5fc15 	stw	r3,-26640(gp)
  100b1c:	203ff405 	stb	zero,-48(r4)
  100b20:	10000115 	stw	zero,4(r2)
  100b24:	01017940 	call	101794 <OS_FlagInit>
  100b28:	010226c0 	call	10226c <OS_MemInit>
  100b2c:	01026240 	call	102624 <OS_QInit>
  100b30:	00c00474 	movhi	r3,17
  100b34:	18f74304 	addi	r3,r3,-8948
  100b38:	1981ff04 	addi	r6,r3,2044
  100b3c:	01c00504 	movi	r7,20
  100b40:	04008004 	movi	r16,512
  100b44:	044000c4 	movi	r17,3
  100b48:	01000434 	movhi	r4,16
  100b4c:	21049104 	addi	r4,r4,4676
  100b50:	000b883a 	mov	r5,zero
  100b54:	00bfffd4 	movui	r2,65535
  100b58:	d8c00115 	stw	r3,4(sp)
  100b5c:	d8800015 	stw	r2,0(sp)
  100b60:	dc000215 	stw	r16,8(sp)
  100b64:	d8000315 	stw	zero,12(sp)
  100b68:	dc400415 	stw	r17,16(sp)
  100b6c:	0103a680 	call	103a68 <OSTaskCreateExt>
  100b70:	01000504 	movi	r4,20
  100b74:	d90d883a 	add	r6,sp,r4
  100b78:	01400474 	movhi	r5,17
  100b7c:	2961cf04 	addi	r5,r5,-30916
  100b80:	0103fe80 	call	103fe8 <OSTaskNameSet>
  100b84:	00c00474 	movhi	r3,17
  100b88:	18f2cb04 	addi	r3,r3,-13524
  100b8c:	1981ff04 	addi	r6,r3,2044
  100b90:	01c004c4 	movi	r7,19
  100b94:	01000434 	movhi	r4,16
  100b98:	21049d04 	addi	r4,r4,4724
  100b9c:	000b883a 	mov	r5,zero
  100ba0:	00bfff94 	movui	r2,65534
  100ba4:	d8c00115 	stw	r3,4(sp)
  100ba8:	d8800015 	stw	r2,0(sp)
  100bac:	dc000215 	stw	r16,8(sp)
  100bb0:	dc400415 	stw	r17,16(sp)
  100bb4:	d8000315 	stw	zero,12(sp)
  100bb8:	0103a680 	call	103a68 <OSTaskCreateExt>
  100bbc:	010004c4 	movi	r4,19
  100bc0:	01400474 	movhi	r5,17
  100bc4:	2961d304 	addi	r5,r5,-30900
  100bc8:	d9800504 	addi	r6,sp,20
  100bcc:	0103fe80 	call	103fe8 <OSTaskNameSet>
  100bd0:	01049200 	call	104920 <OSTmr_Init>
  100bd4:	01066740 	call	106674 <OSInitHookEnd>
  100bd8:	010160c0 	call	10160c <OSDebugInit>
  100bdc:	dfc00817 	ldw	ra,32(sp)
  100be0:	dc400717 	ldw	r17,28(sp)
  100be4:	dc000617 	ldw	r16,24(sp)
  100be8:	dec00904 	addi	sp,sp,36
  100bec:	f800283a 	ret

00100bf0 <OSEventNameGet>:
  100bf0:	defffd04 	addi	sp,sp,-12
  100bf4:	dc400115 	stw	r17,4(sp)
  100bf8:	3023883a 	mov	r17,r6
  100bfc:	dfc00215 	stw	ra,8(sp)
  100c00:	dc000015 	stw	r16,0(sp)
  100c04:	200d883a 	mov	r6,r4
  100c08:	8800021e 	bne	r17,zero,100c14 <OSEventNameGet+0x24>
  100c0c:	0007883a 	mov	r3,zero
  100c10:	00001f06 	br	100c90 <OSEventNameGet+0xa0>
  100c14:	2000031e 	bne	r4,zero,100c24 <OSEventNameGet+0x34>
  100c18:	0007883a 	mov	r3,zero
  100c1c:	00800104 	movi	r2,4
  100c20:	00000306 	br	100c30 <OSEventNameGet+0x40>
  100c24:	2800041e 	bne	r5,zero,100c38 <OSEventNameGet+0x48>
  100c28:	0007883a 	mov	r3,zero
  100c2c:	00800304 	movi	r2,12
  100c30:	88800005 	stb	r2,0(r17)
  100c34:	00001606 	br	100c90 <OSEventNameGet+0xa0>
  100c38:	d0a5fd03 	ldbu	r2,-26636(gp)
  100c3c:	10000326 	beq	r2,zero,100c4c <OSEventNameGet+0x5c>
  100c40:	0007883a 	mov	r3,zero
  100c44:	00800444 	movi	r2,17
  100c48:	003ff906 	br	100c30 <OSEventNameGet+0x40>
  100c4c:	20800003 	ldbu	r2,0(r4)
  100c50:	00c000c4 	movi	r3,3
  100c54:	10bfffc4 	addi	r2,r2,-1
  100c58:	1880032e 	bgeu	r3,r2,100c68 <OSEventNameGet+0x78>
  100c5c:	0007883a 	mov	r3,zero
  100c60:	00800044 	movi	r2,1
  100c64:	003ff206 	br	100c30 <OSEventNameGet+0x40>
  100c68:	0021303a 	rdctl	r16,status
  100c6c:	00bfff84 	movi	r2,-2
  100c70:	8084703a 	and	r2,r16,r2
  100c74:	1001703a 	wrctl	status,r2
  100c78:	2809883a 	mov	r4,r5
  100c7c:	31400384 	addi	r5,r6,14
  100c80:	010081c0 	call	10081c <OS_StrCopy>
  100c84:	8001703a 	wrctl	status,r16
  100c88:	88000005 	stb	zero,0(r17)
  100c8c:	10c03fcc 	andi	r3,r2,255
  100c90:	1805883a 	mov	r2,r3
  100c94:	dfc00217 	ldw	ra,8(sp)
  100c98:	dc400117 	ldw	r17,4(sp)
  100c9c:	dc000017 	ldw	r16,0(sp)
  100ca0:	dec00304 	addi	sp,sp,12
  100ca4:	f800283a 	ret

00100ca8 <OSEventPendMulti>:
  100ca8:	defff704 	addi	sp,sp,-36
  100cac:	dd400515 	stw	r21,20(sp)
  100cb0:	dd400917 	ldw	r21,36(sp)
  100cb4:	dcc00315 	stw	r19,12(sp)
  100cb8:	dc800215 	stw	r18,8(sp)
  100cbc:	dc400115 	stw	r17,4(sp)
  100cc0:	dfc00815 	stw	ra,32(sp)
  100cc4:	ddc00715 	stw	r23,28(sp)
  100cc8:	dd800615 	stw	r22,24(sp)
  100ccc:	dd000415 	stw	r20,16(sp)
  100cd0:	dc000015 	stw	r16,0(sp)
  100cd4:	2027883a 	mov	r19,r4
  100cd8:	2823883a 	mov	r17,r5
  100cdc:	3025883a 	mov	r18,r6
  100ce0:	a800021e 	bne	r21,zero,100cec <OSEventPendMulti+0x44>
  100ce4:	0007883a 	mov	r3,zero
  100ce8:	0000b906 	br	100fd0 <OSEventPendMulti+0x328>
  100cec:	20000226 	beq	r4,zero,100cf8 <OSEventPendMulti+0x50>
  100cf0:	28000126 	beq	r5,zero,100cf8 <OSEventPendMulti+0x50>
  100cf4:	3000031e 	bne	r6,zero,100d04 <OSEventPendMulti+0x5c>
  100cf8:	0007883a 	mov	r3,zero
  100cfc:	00800104 	movi	r2,4
  100d00:	0000a406 	br	100f94 <OSEventPendMulti+0x2ec>
  100d04:	28000015 	stw	zero,0(r5)
  100d08:	20800017 	ldw	r2,0(r4)
  100d0c:	2007883a 	mov	r3,r4
  100d10:	01000084 	movi	r4,2
  100d14:	00000406 	br	100d28 <OSEventPendMulti+0x80>
  100d18:	10800003 	ldbu	r2,0(r2)
  100d1c:	10bfffc4 	addi	r2,r2,-1
  100d20:	20809a36 	bltu	r4,r2,100f8c <OSEventPendMulti+0x2e4>
  100d24:	18800017 	ldw	r2,0(r3)
  100d28:	18c00104 	addi	r3,r3,4
  100d2c:	103ffa1e 	bne	r2,zero,100d18 <OSEventPendMulti+0x70>
  100d30:	d0a5fd03 	ldbu	r2,-26636(gp)
  100d34:	10000326 	beq	r2,zero,100d44 <OSEventPendMulti+0x9c>
  100d38:	0007883a 	mov	r3,zero
  100d3c:	00800084 	movi	r2,2
  100d40:	00009406 	br	100f94 <OSEventPendMulti+0x2ec>
  100d44:	d0a5ec03 	ldbu	r2,-26704(gp)
  100d48:	10000326 	beq	r2,zero,100d58 <OSEventPendMulti+0xb0>
  100d4c:	0007883a 	mov	r3,zero
  100d50:	00800344 	movi	r2,13
  100d54:	00008f06 	br	100f94 <OSEventPendMulti+0x2ec>
  100d58:	002d303a 	rdctl	r22,status
  100d5c:	00bfff84 	movi	r2,-2
  100d60:	b084703a 	and	r2,r22,r2
  100d64:	1001703a 	wrctl	status,r2
  100d68:	9c000017 	ldw	r16,0(r19)
  100d6c:	9811883a 	mov	r8,r19
  100d70:	0009883a 	mov	r4,zero
  100d74:	0029883a 	mov	r20,zero
  100d78:	000d883a 	mov	r6,zero
  100d7c:	00003e06 	br	100e78 <OSEventPendMulti+0x1d0>
  100d80:	80c00003 	ldbu	r3,0(r16)
  100d84:	00800084 	movi	r2,2
  100d88:	18801e26 	beq	r3,r2,100e04 <OSEventPendMulti+0x15c>
  100d8c:	008000c4 	movi	r2,3
  100d90:	18800326 	beq	r3,r2,100da0 <OSEventPendMulti+0xf8>
  100d94:	00800044 	movi	r2,1
  100d98:	1880311e 	bne	r3,r2,100e60 <OSEventPendMulti+0x1b8>
  100d9c:	00000d06 	br	100dd4 <OSEventPendMulti+0x12c>
  100da0:	8080020b 	ldhu	r2,8(r16)
  100da4:	10000926 	beq	r2,zero,100dcc <OSEventPendMulti+0x124>
  100da8:	8c000015 	stw	r16,0(r17)
  100dac:	10bfffc4 	addi	r2,r2,-1
  100db0:	90000015 	stw	zero,0(r18)
  100db4:	8c400104 	addi	r17,r17,4
  100db8:	94800104 	addi	r18,r18,4
  100dbc:	a5000044 	addi	r20,r20,1
  100dc0:	01000044 	movi	r4,1
  100dc4:	8080020d 	sth	r2,8(r16)
  100dc8:	00002906 	br	100e70 <OSEventPendMulti+0x1c8>
  100dcc:	31800054 	ori	r6,r6,1
  100dd0:	00002706 	br	100e70 <OSEventPendMulti+0x1c8>
  100dd4:	80800117 	ldw	r2,4(r16)
  100dd8:	10000826 	beq	r2,zero,100dfc <OSEventPendMulti+0x154>
  100ddc:	90800015 	stw	r2,0(r18)
  100de0:	8c000015 	stw	r16,0(r17)
  100de4:	94800104 	addi	r18,r18,4
  100de8:	8c400104 	addi	r17,r17,4
  100dec:	1d29883a 	add	r20,r3,r20
  100df0:	01000044 	movi	r4,1
  100df4:	80000115 	stw	zero,4(r16)
  100df8:	00001d06 	br	100e70 <OSEventPendMulti+0x1c8>
  100dfc:	31800094 	ori	r6,r6,2
  100e00:	00001b06 	br	100e70 <OSEventPendMulti+0x1c8>
  100e04:	81400117 	ldw	r5,4(r16)
  100e08:	2880058b 	ldhu	r2,22(r5)
  100e0c:	10001226 	beq	r2,zero,100e58 <OSEventPendMulti+0x1b0>
  100e10:	28800417 	ldw	r2,16(r5)
  100e14:	29000217 	ldw	r4,8(r5)
  100e18:	10c00017 	ldw	r3,0(r2)
  100e1c:	10800104 	addi	r2,r2,4
  100e20:	28800415 	stw	r2,16(r5)
  100e24:	90c00015 	stw	r3,0(r18)
  100e28:	1100021e 	bne	r2,r4,100e34 <OSEventPendMulti+0x18c>
  100e2c:	28800117 	ldw	r2,4(r5)
  100e30:	28800415 	stw	r2,16(r5)
  100e34:	2880058b 	ldhu	r2,22(r5)
  100e38:	8c000015 	stw	r16,0(r17)
  100e3c:	94800104 	addi	r18,r18,4
  100e40:	10bfffc4 	addi	r2,r2,-1
  100e44:	8c400104 	addi	r17,r17,4
  100e48:	a5000044 	addi	r20,r20,1
  100e4c:	01000044 	movi	r4,1
  100e50:	2880058d 	sth	r2,22(r5)
  100e54:	00000606 	br	100e70 <OSEventPendMulti+0x1c8>
  100e58:	31800114 	ori	r6,r6,4
  100e5c:	00000406 	br	100e70 <OSEventPendMulti+0x1c8>
  100e60:	b001703a 	wrctl	status,r22
  100e64:	a0ffffcc 	andi	r3,r20,65535
  100e68:	88000015 	stw	zero,0(r17)
  100e6c:	00004906 	br	100f94 <OSEventPendMulti+0x2ec>
  100e70:	42000104 	addi	r8,r8,4
  100e74:	44000017 	ldw	r16,0(r8)
  100e78:	803fc11e 	bne	r16,zero,100d80 <OSEventPendMulti+0xd8>
  100e7c:	20803fcc 	andi	r2,r4,255
  100e80:	05c00044 	movi	r23,1
  100e84:	15c0051e 	bne	r2,r23,100e9c <OSEventPendMulti+0x1f4>
  100e88:	88000015 	stw	zero,0(r17)
  100e8c:	b001703a 	wrctl	status,r22
  100e90:	a0ffffcc 	andi	r3,r20,65535
  100e94:	a8000005 	stb	zero,0(r21)
  100e98:	00004d06 	br	100fd0 <OSEventPendMulti+0x328>
  100e9c:	d165fe17 	ldw	r5,-26632(gp)
  100ea0:	00ffe004 	movi	r3,-128
  100ea4:	9809883a 	mov	r4,r19
  100ea8:	28800c03 	ldbu	r2,48(r5)
  100eac:	10c4b03a 	or	r2,r2,r3
  100eb0:	1184b03a 	or	r2,r2,r6
  100eb4:	28800c05 	stb	r2,48(r5)
  100eb8:	d0a5fe17 	ldw	r2,-26632(gp)
  100ebc:	10000c45 	stb	zero,49(r2)
  100ec0:	d0a5fe17 	ldw	r2,-26632(gp)
  100ec4:	11c00b8d 	sth	r7,46(r2)
  100ec8:	01005840 	call	100584 <OS_EventTaskWaitMulti>
  100ecc:	b001703a 	wrctl	status,r22
  100ed0:	01008ec0 	call	1008ec <OS_Sched>
  100ed4:	002d303a 	rdctl	r22,status
  100ed8:	00bfff84 	movi	r2,-2
  100edc:	b084703a 	and	r2,r22,r2
  100ee0:	1001703a 	wrctl	status,r2
  100ee4:	d125fe17 	ldw	r4,-26632(gp)
  100ee8:	20c00c43 	ldbu	r3,49(r4)
  100eec:	18000226 	beq	r3,zero,100ef8 <OSEventPendMulti+0x250>
  100ef0:	00800084 	movi	r2,2
  100ef4:	1880091e 	bne	r3,r2,100f1c <OSEventPendMulti+0x274>
  100ef8:	24000717 	ldw	r16,28(r4)
  100efc:	80000526 	beq	r16,zero,100f14 <OSEventPendMulti+0x26c>
  100f00:	8c000015 	stw	r16,0(r17)
  100f04:	a5000044 	addi	r20,r20,1
  100f08:	8c400104 	addi	r17,r17,4
  100f0c:	88000015 	stw	zero,0(r17)
  100f10:	00000406 	br	100f24 <OSEventPendMulti+0x27c>
  100f14:	25c00c45 	stb	r23,49(r4)
  100f18:	d125fe17 	ldw	r4,-26632(gp)
  100f1c:	980b883a 	mov	r5,r19
  100f20:	01006700 	call	100670 <OS_EventTaskRemoveMulti>
  100f24:	d125fe17 	ldw	r4,-26632(gp)
  100f28:	20c00c43 	ldbu	r3,49(r4)
  100f2c:	18000326 	beq	r3,zero,100f3c <OSEventPendMulti+0x294>
  100f30:	00800084 	movi	r2,2
  100f34:	1880191e 	bne	r3,r2,100f9c <OSEventPendMulti+0x2f4>
  100f38:	00001106 	br	100f80 <OSEventPendMulti+0x2d8>
  100f3c:	80c00003 	ldbu	r3,0(r16)
  100f40:	18000926 	beq	r3,zero,100f68 <OSEventPendMulti+0x2c0>
  100f44:	00800084 	movi	r2,2
  100f48:	10c0042e 	bgeu	r2,r3,100f5c <OSEventPendMulti+0x2b4>
  100f4c:	008000c4 	movi	r2,3
  100f50:	1880051e 	bne	r3,r2,100f68 <OSEventPendMulti+0x2c0>
  100f54:	90000015 	stw	zero,0(r18)
  100f58:	00000706 	br	100f78 <OSEventPendMulti+0x2d0>
  100f5c:	20800917 	ldw	r2,36(r4)
  100f60:	90800015 	stw	r2,0(r18)
  100f64:	00000406 	br	100f78 <OSEventPendMulti+0x2d0>
  100f68:	b001703a 	wrctl	status,r22
  100f6c:	a0ffffcc 	andi	r3,r20,65535
  100f70:	88000015 	stw	zero,0(r17)
  100f74:	00000606 	br	100f90 <OSEventPendMulti+0x2e8>
  100f78:	a8000005 	stb	zero,0(r21)
  100f7c:	00000a06 	br	100fa8 <OSEventPendMulti+0x300>
  100f80:	00800384 	movi	r2,14
  100f84:	90000015 	stw	zero,0(r18)
  100f88:	00000606 	br	100fa4 <OSEventPendMulti+0x2fc>
  100f8c:	0007883a 	mov	r3,zero
  100f90:	00800044 	movi	r2,1
  100f94:	a8800005 	stb	r2,0(r21)
  100f98:	00000d06 	br	100fd0 <OSEventPendMulti+0x328>
  100f9c:	90000015 	stw	zero,0(r18)
  100fa0:	00800284 	movi	r2,10
  100fa4:	a8800005 	stb	r2,0(r21)
  100fa8:	d0a5fe17 	ldw	r2,-26632(gp)
  100fac:	10000c05 	stb	zero,48(r2)
  100fb0:	d0a5fe17 	ldw	r2,-26632(gp)
  100fb4:	10000c45 	stb	zero,49(r2)
  100fb8:	d0a5fe17 	ldw	r2,-26632(gp)
  100fbc:	10000915 	stw	zero,36(r2)
  100fc0:	10000715 	stw	zero,28(r2)
  100fc4:	10000815 	stw	zero,32(r2)
  100fc8:	b001703a 	wrctl	status,r22
  100fcc:	a0ffffcc 	andi	r3,r20,65535
  100fd0:	1805883a 	mov	r2,r3
  100fd4:	dfc00817 	ldw	ra,32(sp)
  100fd8:	ddc00717 	ldw	r23,28(sp)
  100fdc:	dd800617 	ldw	r22,24(sp)
  100fe0:	dd400517 	ldw	r21,20(sp)
  100fe4:	dd000417 	ldw	r20,16(sp)
  100fe8:	dcc00317 	ldw	r19,12(sp)
  100fec:	dc800217 	ldw	r18,8(sp)
  100ff0:	dc400117 	ldw	r17,4(sp)
  100ff4:	dc000017 	ldw	r16,0(sp)
  100ff8:	dec00904 	addi	sp,sp,36
  100ffc:	f800283a 	ret

00101000 <OSIntEnter>:
  101000:	d0e5ee03 	ldbu	r3,-26696(gp)
  101004:	00800044 	movi	r2,1
  101008:	18800b1e 	bne	r3,r2,101038 <OSIntEnter+0x38>
  10100c:	000b303a 	rdctl	r5,status
  101010:	00bfff84 	movi	r2,-2
  101014:	2884703a 	and	r2,r5,r2
  101018:	1001703a 	wrctl	status,r2
  10101c:	d0a5fd03 	ldbu	r2,-26636(gp)
  101020:	10c9883a 	add	r4,r2,r3
  101024:	10803fcc 	andi	r2,r2,255
  101028:	00c03fc4 	movi	r3,255
  10102c:	10c00126 	beq	r2,r3,101034 <OSIntEnter+0x34>
  101030:	d125fd05 	stb	r4,-26636(gp)
  101034:	2801703a 	wrctl	status,r5
  101038:	f800283a 	ret

0010103c <OSSchedLock>:
  10103c:	d0e5ee03 	ldbu	r3,-26696(gp)
  101040:	00800044 	movi	r2,1
  101044:	18800d1e 	bne	r3,r2,10107c <OSSchedLock+0x40>
  101048:	000b303a 	rdctl	r5,status
  10104c:	00bfff84 	movi	r2,-2
  101050:	2884703a 	and	r2,r5,r2
  101054:	1001703a 	wrctl	status,r2
  101058:	d0a5fd03 	ldbu	r2,-26636(gp)
  10105c:	1000061e 	bne	r2,zero,101078 <OSSchedLock+0x3c>
  101060:	d0a5ec03 	ldbu	r2,-26704(gp)
  101064:	10c9883a 	add	r4,r2,r3
  101068:	10803fcc 	andi	r2,r2,255
  10106c:	00c03fc4 	movi	r3,255
  101070:	10c00126 	beq	r2,r3,101078 <OSSchedLock+0x3c>
  101074:	d125ec05 	stb	r4,-26704(gp)
  101078:	2801703a 	wrctl	status,r5
  10107c:	f800283a 	ret

00101080 <OSSchedUnlock>:
  101080:	d0e5ee03 	ldbu	r3,-26696(gp)
  101084:	00800044 	movi	r2,1
  101088:	1880111e 	bne	r3,r2,1010d0 <OSSchedUnlock+0x50>
  10108c:	000b303a 	rdctl	r5,status
  101090:	00bfff84 	movi	r2,-2
  101094:	2884703a 	and	r2,r5,r2
  101098:	1001703a 	wrctl	status,r2
  10109c:	d0a5ec03 	ldbu	r2,-26704(gp)
  1010a0:	10ffffc4 	addi	r3,r2,-1
  1010a4:	19003fcc 	andi	r4,r3,255
  1010a8:	10000826 	beq	r2,zero,1010cc <OSSchedUnlock+0x4c>
  1010ac:	d0e5ec05 	stb	r3,-26704(gp)
  1010b0:	2000041e 	bne	r4,zero,1010c4 <OSSchedUnlock+0x44>
  1010b4:	d0a5fd03 	ldbu	r2,-26636(gp)
  1010b8:	1000021e 	bne	r2,zero,1010c4 <OSSchedUnlock+0x44>
  1010bc:	2801703a 	wrctl	status,r5
  1010c0:	01008ec1 	jmpi	1008ec <OS_Sched>
  1010c4:	2801703a 	wrctl	status,r5
  1010c8:	f800283a 	ret
  1010cc:	2801703a 	wrctl	status,r5
  1010d0:	f800283a 	ret

001010d4 <OSStatInit>:
  1010d4:	defffe04 	addi	sp,sp,-8
  1010d8:	01000084 	movi	r4,2
  1010dc:	dfc00115 	stw	ra,4(sp)
  1010e0:	dc000015 	stw	r16,0(sp)
  1010e4:	01044600 	call	104460 <OSTimeDly>
  1010e8:	0007303a 	rdctl	r3,status
  1010ec:	043fff84 	movi	r16,-2
  1010f0:	1c04703a 	and	r2,r3,r16
  1010f4:	1001703a 	wrctl	status,r2
  1010f8:	d025ef15 	stw	zero,-26692(gp)
  1010fc:	1801703a 	wrctl	status,r3
  101100:	01001904 	movi	r4,100
  101104:	01044600 	call	104460 <OSTimeDly>
  101108:	0009303a 	rdctl	r4,status
  10110c:	2420703a 	and	r16,r4,r16
  101110:	8001703a 	wrctl	status,r16
  101114:	d0e5ef17 	ldw	r3,-26692(gp)
  101118:	00800044 	movi	r2,1
  10111c:	d0a60305 	stb	r2,-26612(gp)
  101120:	d0e5f515 	stw	r3,-26668(gp)
  101124:	2001703a 	wrctl	status,r4
  101128:	dfc00117 	ldw	ra,4(sp)
  10112c:	dc000017 	ldw	r16,0(sp)
  101130:	dec00204 	addi	sp,sp,8
  101134:	f800283a 	ret

00101138 <OSTimeTick>:
  101138:	deffff04 	addi	sp,sp,-4
  10113c:	dfc00015 	stw	ra,0(sp)
  101140:	01066800 	call	106680 <OSTimeTickHook>
  101144:	0007303a 	rdctl	r3,status
  101148:	00bfff84 	movi	r2,-2
  10114c:	1884703a 	and	r2,r3,r2
  101150:	1001703a 	wrctl	status,r2
  101154:	d0a60017 	ldw	r2,-26624(gp)
  101158:	10800044 	addi	r2,r2,1
  10115c:	d0a60015 	stw	r2,-26624(gp)
  101160:	1801703a 	wrctl	status,r3
  101164:	d125ee03 	ldbu	r4,-26696(gp)
  101168:	00800044 	movi	r2,1
  10116c:	2080321e 	bne	r4,r2,101238 <OSTimeTick+0x100>
  101170:	d0e5f203 	ldbu	r3,-26680(gp)
  101174:	19003026 	beq	r3,r4,101238 <OSTimeTick+0x100>
  101178:	19002d36 	bltu	r3,r4,101230 <OSTimeTick+0xf8>
  10117c:	00800084 	movi	r2,2
  101180:	1880021e 	bne	r3,r2,10118c <OSTimeTick+0x54>
  101184:	d125f205 	stb	r4,-26680(gp)
  101188:	00002906 	br	101230 <OSTimeTick+0xf8>
  10118c:	d025f205 	stb	zero,-26680(gp)
  101190:	00002706 	br	101230 <OSTimeTick+0xf8>
  101194:	000d303a 	rdctl	r6,status
  101198:	00bfff84 	movi	r2,-2
  10119c:	3084703a 	and	r2,r6,r2
  1011a0:	1001703a 	wrctl	status,r2
  1011a4:	28800b8b 	ldhu	r2,46(r5)
  1011a8:	10ffffc4 	addi	r3,r2,-1
  1011ac:	193fffcc 	andi	r4,r3,65535
  1011b0:	10001926 	beq	r2,zero,101218 <OSTimeTick+0xe0>
  1011b4:	28c00b8d 	sth	r3,46(r5)
  1011b8:	2000171e 	bne	r4,zero,101218 <OSTimeTick+0xe0>
  1011bc:	28800c03 	ldbu	r2,48(r5)
  1011c0:	10c0320c 	andi	r3,r2,200
  1011c4:	10800dcc 	andi	r2,r2,55
  1011c8:	10000426 	beq	r2,zero,1011dc <OSTimeTick+0xa4>
  1011cc:	00800044 	movi	r2,1
  1011d0:	28c00c05 	stb	r3,48(r5)
  1011d4:	28800c45 	stb	r2,49(r5)
  1011d8:	00000106 	br	1011e0 <OSTimeTick+0xa8>
  1011dc:	28000c45 	stb	zero,49(r5)
  1011e0:	28800c03 	ldbu	r2,48(r5)
  1011e4:	1080020c 	andi	r2,r2,8
  1011e8:	10000b1e 	bne	r2,zero,101218 <OSTimeTick+0xe0>
  1011ec:	28c00d83 	ldbu	r3,54(r5)
  1011f0:	d0a5fb03 	ldbu	r2,-26644(gp)
  1011f4:	10c4b03a 	or	r2,r2,r3
  1011f8:	d0a5fb05 	stb	r2,-26644(gp)
  1011fc:	28c00d03 	ldbu	r3,52(r5)
  101200:	d0a5fb44 	addi	r2,gp,-26643
  101204:	29000d43 	ldbu	r4,53(r5)
  101208:	1887883a 	add	r3,r3,r2
  10120c:	18800003 	ldbu	r2,0(r3)
  101210:	1104b03a 	or	r2,r2,r4
  101214:	18800005 	stb	r2,0(r3)
  101218:	29400517 	ldw	r5,20(r5)
  10121c:	3001703a 	wrctl	status,r6
  101220:	28c00c83 	ldbu	r3,50(r5)
  101224:	00800504 	movi	r2,20
  101228:	18bfda1e 	bne	r3,r2,101194 <OSTimeTick+0x5c>
  10122c:	00000206 	br	101238 <OSTimeTick+0x100>
  101230:	d165f117 	ldw	r5,-26684(gp)
  101234:	003ffa06 	br	101220 <OSTimeTick+0xe8>
  101238:	dfc00017 	ldw	ra,0(sp)
  10123c:	dec00104 	addi	sp,sp,4
  101240:	f800283a 	ret

00101244 <OS_TaskIdle>:
  101244:	deffff04 	addi	sp,sp,-4
  101248:	dfc00015 	stw	ra,0(sp)
  10124c:	0005303a 	rdctl	r2,status
  101250:	00ffff84 	movi	r3,-2
  101254:	10c6703a 	and	r3,r2,r3
  101258:	1801703a 	wrctl	status,r3
  10125c:	d0e5ef17 	ldw	r3,-26692(gp)
  101260:	18c00044 	addi	r3,r3,1
  101264:	d0e5ef15 	stw	r3,-26692(gp)
  101268:	1001703a 	wrctl	status,r2
  10126c:	01066780 	call	106678 <OSTaskIdleHook>
  101270:	003ff606 	br	10124c <OS_TaskIdle+0x8>

00101274 <OS_TaskStat>:
  101274:	deffff04 	addi	sp,sp,-4
  101278:	dfc00015 	stw	ra,0(sp)
  10127c:	00000106 	br	101284 <OS_TaskStat+0x10>
  101280:	01044600 	call	104460 <OSTimeDly>
  101284:	d0a60303 	ldbu	r2,-26612(gp)
  101288:	01003204 	movi	r4,200
  10128c:	103ffc26 	beq	r2,zero,101280 <OS_TaskStat+0xc>
  101290:	d125f517 	ldw	r4,-26668(gp)
  101294:	01401904 	movi	r5,100
  101298:	01080040 	call	108004 <__udivsi3>
  10129c:	d0a5f515 	stw	r2,-26668(gp)
  1012a0:	1000031e 	bne	r2,zero,1012b0 <OS_TaskStat+0x3c>
  1012a4:	01003fc4 	movi	r4,255
  1012a8:	d025f705 	stb	zero,-26660(gp)
  1012ac:	01042f80 	call	1042f8 <OSTaskSuspend>
  1012b0:	0007303a 	rdctl	r3,status
  1012b4:	00bfff84 	movi	r2,-2
  1012b8:	1884703a 	and	r2,r3,r2
  1012bc:	1001703a 	wrctl	status,r2
  1012c0:	d125ef17 	ldw	r4,-26692(gp)
  1012c4:	d025ef15 	stw	zero,-26692(gp)
  1012c8:	d1260415 	stw	r4,-26608(gp)
  1012cc:	1801703a 	wrctl	status,r3
  1012d0:	d165f517 	ldw	r5,-26668(gp)
  1012d4:	01080040 	call	108004 <__udivsi3>
  1012d8:	00c01904 	movi	r3,100
  1012dc:	1887c83a 	sub	r3,r3,r2
  1012e0:	d0e5f705 	stb	r3,-26660(gp)
  1012e4:	01066680 	call	106668 <OSTaskStatHook>
  1012e8:	01008680 	call	100868 <OS_TaskStatStkChk>
  1012ec:	01001904 	movi	r4,100
  1012f0:	01044600 	call	104460 <OSTimeDly>
  1012f4:	003fee06 	br	1012b0 <OS_TaskStat+0x3c>

001012f8 <OS_TCBInit>:
  1012f8:	defffc04 	addi	sp,sp,-16
  1012fc:	da400617 	ldw	r9,24(sp)
  101300:	2011883a 	mov	r8,r4
  101304:	dfc00315 	stw	ra,12(sp)
  101308:	dc800215 	stw	r18,8(sp)
  10130c:	dc400115 	stw	r17,4(sp)
  101310:	dc000015 	stw	r16,0(sp)
  101314:	0007303a 	rdctl	r3,status
  101318:	04bfff84 	movi	r18,-2
  10131c:	1c84703a 	and	r2,r3,r18
  101320:	1001703a 	wrctl	status,r2
  101324:	d465f617 	ldw	r17,-26664(gp)
  101328:	88004c26 	beq	r17,zero,10145c <OS_TCBInit+0x164>
  10132c:	88800517 	ldw	r2,20(r17)
  101330:	d0a5f615 	stw	r2,-26664(gp)
  101334:	1801703a 	wrctl	status,r3
  101338:	24003fcc 	andi	r16,r4,255
  10133c:	8006d0fa 	srli	r3,r16,3
  101340:	208001cc 	andi	r2,r4,7
  101344:	88800cc5 	stb	r2,51(r17)
  101348:	88c00d05 	stb	r3,52(r17)
  10134c:	19003fcc 	andi	r4,r3,255
  101350:	10803fcc 	andi	r2,r2,255
  101354:	00c00044 	movi	r3,1
  101358:	1908983a 	sll	r4,r3,r4
  10135c:	1886983a 	sll	r3,r3,r2
  101360:	d8800517 	ldw	r2,20(sp)
  101364:	89400015 	stw	r5,0(r17)
  101368:	89800215 	stw	r6,8(r17)
  10136c:	88800115 	stw	r2,4(r17)
  101370:	d8800417 	ldw	r2,16(sp)
  101374:	8a40040d 	sth	r9,16(r17)
  101378:	89c0048d 	sth	r7,18(r17)
  10137c:	88800315 	stw	r2,12(r17)
  101380:	00800fc4 	movi	r2,63
  101384:	89000d85 	stb	r4,54(r17)
  101388:	88c00d45 	stb	r3,53(r17)
  10138c:	88801305 	stb	r2,76(r17)
  101390:	8a000c85 	stb	r8,50(r17)
  101394:	8809883a 	mov	r4,r17
  101398:	88000c05 	stb	zero,48(r17)
  10139c:	88000c45 	stb	zero,49(r17)
  1013a0:	88000b8d 	sth	zero,46(r17)
  1013a4:	88000dc5 	stb	zero,55(r17)
  1013a8:	88000715 	stw	zero,28(r17)
  1013ac:	88000815 	stw	zero,32(r17)
  1013b0:	88000a15 	stw	zero,40(r17)
  1013b4:	88000915 	stw	zero,36(r17)
  1013b8:	88000e15 	stw	zero,56(r17)
  1013bc:	88001015 	stw	zero,64(r17)
  1013c0:	88000f15 	stw	zero,60(r17)
  1013c4:	88001115 	stw	zero,68(r17)
  1013c8:	88001215 	stw	zero,72(r17)
  1013cc:	88001345 	stb	zero,77(r17)
  1013d0:	010667c0 	call	10667c <OSTCBInitHook>
  1013d4:	8809883a 	mov	r4,r17
  1013d8:	010665c0 	call	10665c <OSTaskCreateHook>
  1013dc:	000d303a 	rdctl	r6,status
  1013e0:	3484703a 	and	r2,r6,r18
  1013e4:	1001703a 	wrctl	status,r2
  1013e8:	d0a5f743 	ldbu	r2,-26659(gp)
  1013ec:	8421883a 	add	r16,r16,r16
  1013f0:	d0e5f117 	ldw	r3,-26684(gp)
  1013f4:	8421883a 	add	r16,r16,r16
  1013f8:	11400044 	addi	r5,r2,1
  1013fc:	00800474 	movhi	r2,17
  101400:	10bd5704 	addi	r2,r2,-2724
  101404:	80a1883a 	add	r16,r16,r2
  101408:	84400015 	stw	r17,0(r16)
  10140c:	d125fb03 	ldbu	r4,-26644(gp)
  101410:	88000615 	stw	zero,24(r17)
  101414:	88c00515 	stw	r3,20(r17)
  101418:	18000126 	beq	r3,zero,101420 <OS_TCBInit+0x128>
  10141c:	1c400615 	stw	r17,24(r3)
  101420:	88800d83 	ldbu	r2,54(r17)
  101424:	d465f115 	stw	r17,-26684(gp)
  101428:	2084b03a 	or	r2,r4,r2
  10142c:	d0a5fb05 	stb	r2,-26644(gp)
  101430:	88c00d03 	ldbu	r3,52(r17)
  101434:	d0a5fb44 	addi	r2,gp,-26643
  101438:	89000d43 	ldbu	r4,53(r17)
  10143c:	1887883a 	add	r3,r3,r2
  101440:	18800003 	ldbu	r2,0(r3)
  101444:	d165f745 	stb	r5,-26659(gp)
  101448:	1104b03a 	or	r2,r2,r4
  10144c:	18800005 	stb	r2,0(r3)
  101450:	3001703a 	wrctl	status,r6
  101454:	0005883a 	mov	r2,zero
  101458:	00000206 	br	101464 <OS_TCBInit+0x16c>
  10145c:	1801703a 	wrctl	status,r3
  101460:	00801084 	movi	r2,66
  101464:	dfc00317 	ldw	ra,12(sp)
  101468:	dc800217 	ldw	r18,8(sp)
  10146c:	dc400117 	ldw	r17,4(sp)
  101470:	dc000017 	ldw	r16,0(sp)
  101474:	dec00404 	addi	sp,sp,16
  101478:	f800283a 	ret

0010147c <OSIntExit>:
  10147c:	d1e5ee03 	ldbu	r7,-26696(gp)
  101480:	defffe04 	addi	sp,sp,-8
  101484:	00800044 	movi	r2,1
  101488:	dfc00115 	stw	ra,4(sp)
  10148c:	dc000015 	stw	r16,0(sp)
  101490:	38802b1e 	bne	r7,r2,101540 <OSIntExit+0xc4>
  101494:	0021303a 	rdctl	r16,status
  101498:	00bfff84 	movi	r2,-2
  10149c:	8084703a 	and	r2,r16,r2
  1014a0:	1001703a 	wrctl	status,r2
  1014a4:	d0a5fd03 	ldbu	r2,-26636(gp)
  1014a8:	10ffffc4 	addi	r3,r2,-1
  1014ac:	19003fcc 	andi	r4,r3,255
  1014b0:	10000226 	beq	r2,zero,1014bc <OSIntExit+0x40>
  1014b4:	d0e5fd05 	stb	r3,-26636(gp)
  1014b8:	2000201e 	bne	r4,zero,10153c <OSIntExit+0xc0>
  1014bc:	d0a5ec03 	ldbu	r2,-26704(gp)
  1014c0:	01400474 	movhi	r5,17
  1014c4:	2961d684 	addi	r5,r5,-30886
  1014c8:	10001c1e 	bne	r2,zero,10153c <OSIntExit+0xc0>
  1014cc:	d0a5fb03 	ldbu	r2,-26644(gp)
  1014d0:	d0e5fb44 	addi	r3,gp,-26643
  1014d4:	d1a5f0c3 	ldbu	r6,-26685(gp)
  1014d8:	1145883a 	add	r2,r2,r5
  1014dc:	11000003 	ldbu	r4,0(r2)
  1014e0:	20c5883a 	add	r2,r4,r3
  1014e4:	10800003 	ldbu	r2,0(r2)
  1014e8:	200890fa 	slli	r4,r4,3
  1014ec:	00c00474 	movhi	r3,17
  1014f0:	18fd5704 	addi	r3,r3,-2724
  1014f4:	1145883a 	add	r2,r2,r5
  1014f8:	10800003 	ldbu	r2,0(r2)
  1014fc:	2089883a 	add	r4,r4,r2
  101500:	21403fcc 	andi	r5,r4,255
  101504:	2945883a 	add	r2,r5,r5
  101508:	1085883a 	add	r2,r2,r2
  10150c:	10c5883a 	add	r2,r2,r3
  101510:	d125f085 	stb	r4,-26686(gp)
  101514:	29800926 	beq	r5,r6,10153c <OSIntExit+0xc0>
  101518:	10800017 	ldw	r2,0(r2)
  10151c:	d125f317 	ldw	r4,-26676(gp)
  101520:	10c00e17 	ldw	r3,56(r2)
  101524:	21c9883a 	add	r4,r4,r7
  101528:	d0a5f915 	stw	r2,-26652(gp)
  10152c:	19c7883a 	add	r3,r3,r7
  101530:	10c00e15 	stw	r3,56(r2)
  101534:	d125f315 	stw	r4,-26676(gp)
  101538:	010658c0 	call	10658c <OSCtxSw>
  10153c:	8001703a 	wrctl	status,r16
  101540:	dfc00117 	ldw	ra,4(sp)
  101544:	dc000017 	ldw	r16,0(sp)
  101548:	dec00204 	addi	sp,sp,8
  10154c:	f800283a 	ret

00101550 <OSEventNameSet>:
  101550:	defffd04 	addi	sp,sp,-12
  101554:	dfc00215 	stw	ra,8(sp)
  101558:	dc000115 	stw	r16,4(sp)
  10155c:	30002726 	beq	r6,zero,1015fc <OSEventNameSet+0xac>
  101560:	2000021e 	bne	r4,zero,10156c <OSEventNameSet+0x1c>
  101564:	00800104 	movi	r2,4
  101568:	00000206 	br	101574 <OSEventNameSet+0x24>
  10156c:	2800031e 	bne	r5,zero,10157c <OSEventNameSet+0x2c>
  101570:	00800304 	movi	r2,12
  101574:	30800005 	stb	r2,0(r6)
  101578:	00002006 	br	1015fc <OSEventNameSet+0xac>
  10157c:	d0a5fd03 	ldbu	r2,-26636(gp)
  101580:	10000226 	beq	r2,zero,10158c <OSEventNameSet+0x3c>
  101584:	00800484 	movi	r2,18
  101588:	003ffa06 	br	101574 <OSEventNameSet+0x24>
  10158c:	20800003 	ldbu	r2,0(r4)
  101590:	00c000c4 	movi	r3,3
  101594:	10bfffc4 	addi	r2,r2,-1
  101598:	1880022e 	bgeu	r3,r2,1015a4 <OSEventNameSet+0x54>
  10159c:	00800044 	movi	r2,1
  1015a0:	003ff406 	br	101574 <OSEventNameSet+0x24>
  1015a4:	0021303a 	rdctl	r16,status
  1015a8:	00bfff84 	movi	r2,-2
  1015ac:	8084703a 	and	r2,r16,r2
  1015b0:	1001703a 	wrctl	status,r2
  1015b4:	2807883a 	mov	r3,r5
  1015b8:	00000106 	br	1015c0 <OSEventNameSet+0x70>
  1015bc:	18c00044 	addi	r3,r3,1
  1015c0:	18800003 	ldbu	r2,0(r3)
  1015c4:	103ffd1e 	bne	r2,zero,1015bc <OSEventNameSet+0x6c>
  1015c8:	1945c83a 	sub	r2,r3,r5
  1015cc:	10803fcc 	andi	r2,r2,255
  1015d0:	00c007c4 	movi	r3,31
  1015d4:	1880032e 	bgeu	r3,r2,1015e4 <OSEventNameSet+0x94>
  1015d8:	8001703a 	wrctl	status,r16
  1015dc:	008002c4 	movi	r2,11
  1015e0:	003fe406 	br	101574 <OSEventNameSet+0x24>
  1015e4:	21000384 	addi	r4,r4,14
  1015e8:	d9800015 	stw	r6,0(sp)
  1015ec:	010081c0 	call	10081c <OS_StrCopy>
  1015f0:	8001703a 	wrctl	status,r16
  1015f4:	d9800017 	ldw	r6,0(sp)
  1015f8:	30000005 	stb	zero,0(r6)
  1015fc:	dfc00217 	ldw	ra,8(sp)
  101600:	dc000117 	ldw	r16,4(sp)
  101604:	dec00304 	addi	sp,sp,12
  101608:	f800283a 	ret

0010160c <OSDebugInit>:
  10160c:	f800283a 	ret

00101610 <OS_FlagBlock>:
  101610:	02400474 	movhi	r9,17
  101614:	4a6e0004 	addi	r9,r9,-18432
  101618:	48c00017 	ldw	r3,0(r9)
  10161c:	da000017 	ldw	r8,0(sp)
  101620:	02800474 	movhi	r10,17
  101624:	52adfd04 	addi	r10,r10,-18444
  101628:	18800c03 	ldbu	r2,48(r3)
  10162c:	10800814 	ori	r2,r2,32
  101630:	18800c05 	stb	r2,48(r3)
  101634:	48800017 	ldw	r2,0(r9)
  101638:	10000c45 	stb	zero,49(r2)
  10163c:	48800017 	ldw	r2,0(r9)
  101640:	12000b8d 	sth	r8,46(r2)
  101644:	11400a15 	stw	r5,40(r2)
  101648:	29c00485 	stb	r7,18(r5)
  10164c:	48800017 	ldw	r2,0(r9)
  101650:	2980040d 	sth	r6,16(r5)
  101654:	28800215 	stw	r2,8(r5)
  101658:	20800117 	ldw	r2,4(r4)
  10165c:	28000115 	stw	zero,4(r5)
  101660:	29000315 	stw	r4,12(r5)
  101664:	28800015 	stw	r2,0(r5)
  101668:	20800117 	ldw	r2,4(r4)
  10166c:	10000126 	beq	r2,zero,101674 <OS_FlagBlock+0x64>
  101670:	11400115 	stw	r5,4(r2)
  101674:	21400115 	stw	r5,4(r4)
  101678:	49400017 	ldw	r5,0(r9)
  10167c:	00c00474 	movhi	r3,17
  101680:	18edfd44 	addi	r3,r3,-18443
  101684:	29000d03 	ldbu	r4,52(r5)
  101688:	28800d43 	ldbu	r2,53(r5)
  10168c:	20c9883a 	add	r4,r4,r3
  101690:	20c00003 	ldbu	r3,0(r4)
  101694:	0084303a 	nor	r2,zero,r2
  101698:	10c4703a 	and	r2,r2,r3
  10169c:	10c03fcc 	andi	r3,r2,255
  1016a0:	18c0201c 	xori	r3,r3,128
  1016a4:	18ffe004 	addi	r3,r3,-128
  1016a8:	20800005 	stb	r2,0(r4)
  1016ac:	1800051e 	bne	r3,zero,1016c4 <OS_FlagBlock+0xb4>
  1016b0:	28800d83 	ldbu	r2,54(r5)
  1016b4:	50c00003 	ldbu	r3,0(r10)
  1016b8:	0084303a 	nor	r2,zero,r2
  1016bc:	10c4703a 	and	r2,r2,r3
  1016c0:	50800005 	stb	r2,0(r10)
  1016c4:	f800283a 	ret

001016c8 <OS_FlagUnlink>:
  1016c8:	20c00017 	ldw	r3,0(r4)
  1016cc:	20800117 	ldw	r2,4(r4)
  1016d0:	180b003a 	cmpeq	r5,r3,zero
  1016d4:	1000051e 	bne	r2,zero,1016ec <OS_FlagUnlink+0x24>
  1016d8:	20800317 	ldw	r2,12(r4)
  1016dc:	10c00115 	stw	r3,4(r2)
  1016e0:	2800051e 	bne	r5,zero,1016f8 <OS_FlagUnlink+0x30>
  1016e4:	18000115 	stw	zero,4(r3)
  1016e8:	00000306 	br	1016f8 <OS_FlagUnlink+0x30>
  1016ec:	10c00015 	stw	r3,0(r2)
  1016f0:	2800011e 	bne	r5,zero,1016f8 <OS_FlagUnlink+0x30>
  1016f4:	18800115 	stw	r2,4(r3)
  1016f8:	20800217 	ldw	r2,8(r4)
  1016fc:	10000a15 	stw	zero,40(r2)
  101700:	f800283a 	ret

00101704 <OS_FlagTaskRdy>:
  101704:	200d883a 	mov	r6,r4
  101708:	21000217 	ldw	r4,8(r4)
  10170c:	defffe04 	addi	sp,sp,-8
  101710:	dc000015 	stw	r16,0(sp)
  101714:	dfc00115 	stw	ra,4(sp)
  101718:	20800c03 	ldbu	r2,48(r4)
  10171c:	01c00474 	movhi	r7,17
  101720:	39edfd04 	addi	r7,r7,-18444
  101724:	0021883a 	mov	r16,zero
  101728:	108037cc 	andi	r2,r2,223
  10172c:	20800c05 	stb	r2,48(r4)
  101730:	10803fcc 	andi	r2,r2,255
  101734:	21400b0d 	sth	r5,44(r4)
  101738:	20000c45 	stb	zero,49(r4)
  10173c:	20000b8d 	sth	zero,46(r4)
  101740:	10000d1e 	bne	r2,zero,101778 <OS_FlagTaskRdy+0x74>
  101744:	20c00d83 	ldbu	r3,54(r4)
  101748:	38800003 	ldbu	r2,0(r7)
  10174c:	04000044 	movi	r16,1
  101750:	10c4b03a 	or	r2,r2,r3
  101754:	38800005 	stb	r2,0(r7)
  101758:	20c00d03 	ldbu	r3,52(r4)
  10175c:	00800474 	movhi	r2,17
  101760:	10adfd44 	addi	r2,r2,-18443
  101764:	21000d43 	ldbu	r4,53(r4)
  101768:	1887883a 	add	r3,r3,r2
  10176c:	18800003 	ldbu	r2,0(r3)
  101770:	1104b03a 	or	r2,r2,r4
  101774:	18800005 	stb	r2,0(r3)
  101778:	3009883a 	mov	r4,r6
  10177c:	01016c80 	call	1016c8 <OS_FlagUnlink>
  101780:	80803fcc 	andi	r2,r16,255
  101784:	dfc00117 	ldw	ra,4(sp)
  101788:	dc000017 	ldw	r16,0(sp)
  10178c:	dec00204 	addi	sp,sp,8
  101790:	f800283a 	ret

00101794 <OS_FlagInit>:
  101794:	deffff04 	addi	sp,sp,-4
  101798:	0140dc04 	movi	r5,880
  10179c:	01000474 	movhi	r4,17
  1017a0:	212e1304 	addi	r4,r4,-18356
  1017a4:	dfc00015 	stw	ra,0(sp)
  1017a8:	01007dc0 	call	1007dc <OS_MemClr>
  1017ac:	01400474 	movhi	r5,17
  1017b0:	296e1e04 	addi	r5,r5,-18312
  1017b4:	01800fc4 	movi	r6,63
  1017b8:	2880d104 	addi	r2,r5,836
  1017bc:	283ff505 	stb	zero,-44(r5)
  1017c0:	297ff615 	stw	r5,-40(r5)
  1017c4:	29bff785 	stb	r6,-34(r5)
  1017c8:	283ff7c5 	stb	zero,-33(r5)
  1017cc:	29400b04 	addi	r5,r5,44
  1017d0:	28bffa1e 	bne	r5,r2,1017bc <OS_FlagInit+0x28>
  1017d4:	293f2404 	addi	r4,r5,-880
  1017d8:	00800474 	movhi	r2,17
  1017dc:	10ae0404 	addi	r2,r2,-18416
  1017e0:	28fff504 	addi	r3,r5,-44
  1017e4:	11000015 	stw	r4,0(r2)
  1017e8:	19800285 	stb	r6,10(r3)
  1017ec:	180002c5 	stb	zero,11(r3)
  1017f0:	283ff505 	stb	zero,-44(r5)
  1017f4:	18000115 	stw	zero,4(r3)
  1017f8:	dfc00017 	ldw	ra,0(sp)
  1017fc:	dec00104 	addi	sp,sp,4
  101800:	f800283a 	ret

00101804 <OSFlagQuery>:
  101804:	000d883a 	mov	r6,zero
  101808:	28001326 	beq	r5,zero,101858 <OSFlagQuery+0x54>
  10180c:	000d883a 	mov	r6,zero
  101810:	2000021e 	bne	r4,zero,10181c <OSFlagQuery+0x18>
  101814:	00801b84 	movi	r2,110
  101818:	00000506 	br	101830 <OSFlagQuery+0x2c>
  10181c:	20c00003 	ldbu	r3,0(r4)
  101820:	00800144 	movi	r2,5
  101824:	000d883a 	mov	r6,zero
  101828:	18800326 	beq	r3,r2,101838 <OSFlagQuery+0x34>
  10182c:	00800044 	movi	r2,1
  101830:	28800005 	stb	r2,0(r5)
  101834:	00000806 	br	101858 <OSFlagQuery+0x54>
  101838:	0005303a 	rdctl	r2,status
  10183c:	00ffff84 	movi	r3,-2
  101840:	10c6703a 	and	r3,r2,r3
  101844:	1801703a 	wrctl	status,r3
  101848:	20c0020b 	ldhu	r3,8(r4)
  10184c:	1001703a 	wrctl	status,r2
  101850:	28000005 	stb	zero,0(r5)
  101854:	180d883a 	mov	r6,r3
  101858:	3005883a 	mov	r2,r6
  10185c:	f800283a 	ret

00101860 <OSFlagAccept>:
  101860:	3011883a 	mov	r8,r6
  101864:	3800021e 	bne	r7,zero,101870 <OSFlagAccept+0x10>
  101868:	0007883a 	mov	r3,zero
  10186c:	00005606 	br	1019c8 <OSFlagAccept+0x168>
  101870:	2000031e 	bne	r4,zero,101880 <OSFlagAccept+0x20>
  101874:	0007883a 	mov	r3,zero
  101878:	00801b84 	movi	r2,110
  10187c:	00000506 	br	101894 <OSFlagAccept+0x34>
  101880:	20c00003 	ldbu	r3,0(r4)
  101884:	00800144 	movi	r2,5
  101888:	18800426 	beq	r3,r2,10189c <OSFlagAccept+0x3c>
  10188c:	0007883a 	mov	r3,zero
  101890:	00800044 	movi	r2,1
  101894:	38800005 	stb	r2,0(r7)
  101898:	00004b06 	br	1019c8 <OSFlagAccept+0x168>
  10189c:	00bfe004 	movi	r2,-128
  1018a0:	3084703a 	and	r2,r6,r2
  1018a4:	10803fcc 	andi	r2,r2,255
  1018a8:	1000021e 	bne	r2,zero,1018b4 <OSFlagAccept+0x54>
  1018ac:	0015883a 	mov	r10,zero
  1018b0:	00000206 	br	1018bc <OSFlagAccept+0x5c>
  1018b4:	32001fcc 	andi	r8,r6,127
  1018b8:	02800044 	movi	r10,1
  1018bc:	38000005 	stb	zero,0(r7)
  1018c0:	0017303a 	rdctl	r11,status
  1018c4:	00bfff84 	movi	r2,-2
  1018c8:	5884703a 	and	r2,r11,r2
  1018cc:	1001703a 	wrctl	status,r2
  1018d0:	41803fcc 	andi	r6,r8,255
  1018d4:	02400044 	movi	r9,1
  1018d8:	32402526 	beq	r6,r9,101970 <OSFlagAccept+0x110>
  1018dc:	32401936 	bltu	r6,r9,101944 <OSFlagAccept+0xe4>
  1018e0:	00800084 	movi	r2,2
  1018e4:	30800326 	beq	r6,r2,1018f4 <OSFlagAccept+0x94>
  1018e8:	008000c4 	movi	r2,3
  1018ec:	3080311e 	bne	r6,r2,1019b4 <OSFlagAccept+0x154>
  1018f0:	00000a06 	br	10191c <OSFlagAccept+0xbc>
  1018f4:	2180020b 	ldhu	r6,8(r4)
  1018f8:	28ffffcc 	andi	r3,r5,65535
  1018fc:	314a703a 	and	r5,r6,r5
  101900:	28bfffcc 	andi	r2,r5,65535
  101904:	2811883a 	mov	r8,r5
  101908:	10c0261e 	bne	r2,r3,1019a4 <OSFlagAccept+0x144>
  10190c:	50803fcc 	andi	r2,r10,255
  101910:	1240261e 	bne	r2,r9,1019ac <OSFlagAccept+0x14c>
  101914:	0144303a 	nor	r2,zero,r5
  101918:	00000806 	br	10193c <OSFlagAccept+0xdc>
  10191c:	2180020b 	ldhu	r6,8(r4)
  101920:	3146703a 	and	r3,r6,r5
  101924:	18bfffcc 	andi	r2,r3,65535
  101928:	1811883a 	mov	r8,r3
  10192c:	10001d26 	beq	r2,zero,1019a4 <OSFlagAccept+0x144>
  101930:	50803fcc 	andi	r2,r10,255
  101934:	12401d1e 	bne	r2,r9,1019ac <OSFlagAccept+0x14c>
  101938:	00c4303a 	nor	r2,zero,r3
  10193c:	1184703a 	and	r2,r2,r6
  101940:	00001606 	br	10199c <OSFlagAccept+0x13c>
  101944:	2180020b 	ldhu	r6,8(r4)
  101948:	28bfffcc 	andi	r2,r5,65535
  10194c:	0186303a 	nor	r3,zero,r6
  101950:	194a703a 	and	r5,r3,r5
  101954:	28ffffcc 	andi	r3,r5,65535
  101958:	2811883a 	mov	r8,r5
  10195c:	1880111e 	bne	r3,r2,1019a4 <OSFlagAccept+0x144>
  101960:	50803fcc 	andi	r2,r10,255
  101964:	1240111e 	bne	r2,r9,1019ac <OSFlagAccept+0x14c>
  101968:	2984b03a 	or	r2,r5,r6
  10196c:	00000b06 	br	10199c <OSFlagAccept+0x13c>
  101970:	2240020b 	ldhu	r9,8(r4)
  101974:	0244303a 	nor	r2,zero,r9
  101978:	1146703a 	and	r3,r2,r5
  10197c:	18bfffcc 	andi	r2,r3,65535
  101980:	10a0001c 	xori	r2,r2,32768
  101984:	10a00004 	addi	r2,r2,-32768
  101988:	1811883a 	mov	r8,r3
  10198c:	10000526 	beq	r2,zero,1019a4 <OSFlagAccept+0x144>
  101990:	50803fcc 	andi	r2,r10,255
  101994:	1180051e 	bne	r2,r6,1019ac <OSFlagAccept+0x14c>
  101998:	1a44b03a 	or	r2,r3,r9
  10199c:	2080020d 	sth	r2,8(r4)
  1019a0:	00000206 	br	1019ac <OSFlagAccept+0x14c>
  1019a4:	00801c04 	movi	r2,112
  1019a8:	38800005 	stb	r2,0(r7)
  1019ac:	5801703a 	wrctl	status,r11
  1019b0:	00000406 	br	1019c4 <OSFlagAccept+0x164>
  1019b4:	5801703a 	wrctl	status,r11
  1019b8:	00801bc4 	movi	r2,111
  1019bc:	38800005 	stb	r2,0(r7)
  1019c0:	0011883a 	mov	r8,zero
  1019c4:	40ffffcc 	andi	r3,r8,65535
  1019c8:	1805883a 	mov	r2,r3
  1019cc:	f800283a 	ret

001019d0 <OSFlagCreate>:
  1019d0:	0007883a 	mov	r3,zero
  1019d4:	28001e26 	beq	r5,zero,101a50 <OSFlagCreate+0x80>
  1019d8:	00800474 	movhi	r2,17
  1019dc:	10adff04 	addi	r2,r2,-18436
  1019e0:	10800003 	ldbu	r2,0(r2)
  1019e4:	0007883a 	mov	r3,zero
  1019e8:	10000226 	beq	r2,zero,1019f4 <OSFlagCreate+0x24>
  1019ec:	00800404 	movi	r2,16
  1019f0:	00001606 	br	101a4c <OSFlagCreate+0x7c>
  1019f4:	000d303a 	rdctl	r6,status
  1019f8:	00bfff84 	movi	r2,-2
  1019fc:	3084703a 	and	r2,r6,r2
  101a00:	1001703a 	wrctl	status,r2
  101a04:	01c00474 	movhi	r7,17
  101a08:	39ee0404 	addi	r7,r7,-18416
  101a0c:	38c00017 	ldw	r3,0(r7)
  101a10:	18000c26 	beq	r3,zero,101a44 <OSFlagCreate+0x74>
  101a14:	18800117 	ldw	r2,4(r3)
  101a18:	1900020d 	sth	r4,8(r3)
  101a1c:	18000115 	stw	zero,4(r3)
  101a20:	38800015 	stw	r2,0(r7)
  101a24:	00800144 	movi	r2,5
  101a28:	18800005 	stb	r2,0(r3)
  101a2c:	00800fc4 	movi	r2,63
  101a30:	18800285 	stb	r2,10(r3)
  101a34:	180002c5 	stb	zero,11(r3)
  101a38:	3001703a 	wrctl	status,r6
  101a3c:	28000005 	stb	zero,0(r5)
  101a40:	00000306 	br	101a50 <OSFlagCreate+0x80>
  101a44:	3001703a 	wrctl	status,r6
  101a48:	00801c84 	movi	r2,114
  101a4c:	28800005 	stb	r2,0(r5)
  101a50:	1805883a 	mov	r2,r3
  101a54:	f800283a 	ret

00101a58 <OSFlagDel>:
  101a58:	defffa04 	addi	sp,sp,-24
  101a5c:	dc400215 	stw	r17,8(sp)
  101a60:	dfc00515 	stw	ra,20(sp)
  101a64:	dcc00415 	stw	r19,16(sp)
  101a68:	dc800315 	stw	r18,12(sp)
  101a6c:	dc000115 	stw	r16,4(sp)
  101a70:	2023883a 	mov	r17,r4
  101a74:	30004826 	beq	r6,zero,101b98 <OSFlagDel+0x140>
  101a78:	2000021e 	bne	r4,zero,101a84 <OSFlagDel+0x2c>
  101a7c:	00801b84 	movi	r2,110
  101a80:	00004406 	br	101b94 <OSFlagDel+0x13c>
  101a84:	00800474 	movhi	r2,17
  101a88:	10adff04 	addi	r2,r2,-18436
  101a8c:	10800003 	ldbu	r2,0(r2)
  101a90:	10000226 	beq	r2,zero,101a9c <OSFlagDel+0x44>
  101a94:	008003c4 	movi	r2,15
  101a98:	00003e06 	br	101b94 <OSFlagDel+0x13c>
  101a9c:	20c00003 	ldbu	r3,0(r4)
  101aa0:	00800144 	movi	r2,5
  101aa4:	18800226 	beq	r3,r2,101ab0 <OSFlagDel+0x58>
  101aa8:	00800044 	movi	r2,1
  101aac:	00003906 	br	101b94 <OSFlagDel+0x13c>
  101ab0:	0025303a 	rdctl	r18,status
  101ab4:	00bfff84 	movi	r2,-2
  101ab8:	9084703a 	and	r2,r18,r2
  101abc:	1001703a 	wrctl	status,r2
  101ac0:	21000117 	ldw	r4,4(r4)
  101ac4:	29403fcc 	andi	r5,r5,255
  101ac8:	2004c03a 	cmpne	r2,r4,zero
  101acc:	1027883a 	mov	r19,r2
  101ad0:	28000326 	beq	r5,zero,101ae0 <OSFlagDel+0x88>
  101ad4:	00800044 	movi	r2,1
  101ad8:	28802c1e 	bne	r5,r2,101b8c <OSFlagDel+0x134>
  101adc:	00001006 	br	101b20 <OSFlagDel+0xc8>
  101ae0:	10000c1e 	bne	r2,zero,101b14 <OSFlagDel+0xbc>
  101ae4:	00800fc4 	movi	r2,63
  101ae8:	88800285 	stb	r2,10(r17)
  101aec:	880002c5 	stb	zero,11(r17)
  101af0:	88000005 	stb	zero,0(r17)
  101af4:	00800474 	movhi	r2,17
  101af8:	10ae0404 	addi	r2,r2,-18416
  101afc:	10c00017 	ldw	r3,0(r2)
  101b00:	8800020d 	sth	zero,8(r17)
  101b04:	14400015 	stw	r17,0(r2)
  101b08:	88c00115 	stw	r3,4(r17)
  101b0c:	9001703a 	wrctl	status,r18
  101b10:	00001b06 	br	101b80 <OSFlagDel+0x128>
  101b14:	9001703a 	wrctl	status,r18
  101b18:	00801244 	movi	r2,73
  101b1c:	00001d06 	br	101b94 <OSFlagDel+0x13c>
  101b20:	2021883a 	mov	r16,r4
  101b24:	00000406 	br	101b38 <OSFlagDel+0xe0>
  101b28:	d9800015 	stw	r6,0(sp)
  101b2c:	01017040 	call	101704 <OS_FlagTaskRdy>
  101b30:	84000017 	ldw	r16,0(r16)
  101b34:	d9800017 	ldw	r6,0(sp)
  101b38:	8009883a 	mov	r4,r16
  101b3c:	000b883a 	mov	r5,zero
  101b40:	803ff91e 	bne	r16,zero,101b28 <OSFlagDel+0xd0>
  101b44:	00800fc4 	movi	r2,63
  101b48:	88800285 	stb	r2,10(r17)
  101b4c:	880002c5 	stb	zero,11(r17)
  101b50:	88000005 	stb	zero,0(r17)
  101b54:	00800474 	movhi	r2,17
  101b58:	10ae0404 	addi	r2,r2,-18416
  101b5c:	10c00017 	ldw	r3,0(r2)
  101b60:	8800020d 	sth	zero,8(r17)
  101b64:	14400015 	stw	r17,0(r2)
  101b68:	88c00115 	stw	r3,4(r17)
  101b6c:	9001703a 	wrctl	status,r18
  101b70:	98000326 	beq	r19,zero,101b80 <OSFlagDel+0x128>
  101b74:	d9800015 	stw	r6,0(sp)
  101b78:	01008ec0 	call	1008ec <OS_Sched>
  101b7c:	d9800017 	ldw	r6,0(sp)
  101b80:	0023883a 	mov	r17,zero
  101b84:	30000005 	stb	zero,0(r6)
  101b88:	00000306 	br	101b98 <OSFlagDel+0x140>
  101b8c:	9001703a 	wrctl	status,r18
  101b90:	008001c4 	movi	r2,7
  101b94:	30800005 	stb	r2,0(r6)
  101b98:	8805883a 	mov	r2,r17
  101b9c:	dfc00517 	ldw	ra,20(sp)
  101ba0:	dcc00417 	ldw	r19,16(sp)
  101ba4:	dc800317 	ldw	r18,12(sp)
  101ba8:	dc400217 	ldw	r17,8(sp)
  101bac:	dc000117 	ldw	r16,4(sp)
  101bb0:	dec00604 	addi	sp,sp,24
  101bb4:	f800283a 	ret

00101bb8 <OSFlagNameGet>:
  101bb8:	defffd04 	addi	sp,sp,-12
  101bbc:	dc000015 	stw	r16,0(sp)
  101bc0:	3021883a 	mov	r16,r6
  101bc4:	dfc00215 	stw	ra,8(sp)
  101bc8:	dc400115 	stw	r17,4(sp)
  101bcc:	200d883a 	mov	r6,r4
  101bd0:	8000021e 	bne	r16,zero,101bdc <OSFlagNameGet+0x24>
  101bd4:	0007883a 	mov	r3,zero
  101bd8:	00002106 	br	101c60 <OSFlagNameGet+0xa8>
  101bdc:	2000031e 	bne	r4,zero,101bec <OSFlagNameGet+0x34>
  101be0:	0007883a 	mov	r3,zero
  101be4:	00801b84 	movi	r2,110
  101be8:	00000306 	br	101bf8 <OSFlagNameGet+0x40>
  101bec:	2800041e 	bne	r5,zero,101c00 <OSFlagNameGet+0x48>
  101bf0:	0007883a 	mov	r3,zero
  101bf4:	00800304 	movi	r2,12
  101bf8:	80800005 	stb	r2,0(r16)
  101bfc:	00001806 	br	101c60 <OSFlagNameGet+0xa8>
  101c00:	00800474 	movhi	r2,17
  101c04:	10adff04 	addi	r2,r2,-18436
  101c08:	10800003 	ldbu	r2,0(r2)
  101c0c:	10000326 	beq	r2,zero,101c1c <OSFlagNameGet+0x64>
  101c10:	0007883a 	mov	r3,zero
  101c14:	00800444 	movi	r2,17
  101c18:	003ff706 	br	101bf8 <OSFlagNameGet+0x40>
  101c1c:	0023303a 	rdctl	r17,status
  101c20:	00bfff84 	movi	r2,-2
  101c24:	8884703a 	and	r2,r17,r2
  101c28:	1001703a 	wrctl	status,r2
  101c2c:	20c00003 	ldbu	r3,0(r4)
  101c30:	00800144 	movi	r2,5
  101c34:	18800426 	beq	r3,r2,101c48 <OSFlagNameGet+0x90>
  101c38:	8801703a 	wrctl	status,r17
  101c3c:	0007883a 	mov	r3,zero
  101c40:	00800044 	movi	r2,1
  101c44:	003fec06 	br	101bf8 <OSFlagNameGet+0x40>
  101c48:	2809883a 	mov	r4,r5
  101c4c:	31400284 	addi	r5,r6,10
  101c50:	010081c0 	call	10081c <OS_StrCopy>
  101c54:	8801703a 	wrctl	status,r17
  101c58:	80000005 	stb	zero,0(r16)
  101c5c:	10c03fcc 	andi	r3,r2,255
  101c60:	1805883a 	mov	r2,r3
  101c64:	dfc00217 	ldw	ra,8(sp)
  101c68:	dc400117 	ldw	r17,4(sp)
  101c6c:	dc000017 	ldw	r16,0(sp)
  101c70:	dec00304 	addi	sp,sp,12
  101c74:	f800283a 	ret

00101c78 <OSFlagNameSet>:
  101c78:	defffb04 	addi	sp,sp,-20
  101c7c:	dc800215 	stw	r18,8(sp)
  101c80:	dc400115 	stw	r17,4(sp)
  101c84:	dc000015 	stw	r16,0(sp)
  101c88:	dfc00415 	stw	ra,16(sp)
  101c8c:	dcc00315 	stw	r19,12(sp)
  101c90:	3021883a 	mov	r16,r6
  101c94:	2023883a 	mov	r17,r4
  101c98:	2825883a 	mov	r18,r5
  101c9c:	30002426 	beq	r6,zero,101d30 <OSFlagNameSet+0xb8>
  101ca0:	2000021e 	bne	r4,zero,101cac <OSFlagNameSet+0x34>
  101ca4:	00801b84 	movi	r2,110
  101ca8:	00000206 	br	101cb4 <OSFlagNameSet+0x3c>
  101cac:	2800031e 	bne	r5,zero,101cbc <OSFlagNameSet+0x44>
  101cb0:	00800304 	movi	r2,12
  101cb4:	80800005 	stb	r2,0(r16)
  101cb8:	00001d06 	br	101d30 <OSFlagNameSet+0xb8>
  101cbc:	00800474 	movhi	r2,17
  101cc0:	10adff04 	addi	r2,r2,-18436
  101cc4:	10800003 	ldbu	r2,0(r2)
  101cc8:	10000226 	beq	r2,zero,101cd4 <OSFlagNameSet+0x5c>
  101ccc:	00800484 	movi	r2,18
  101cd0:	003ff806 	br	101cb4 <OSFlagNameSet+0x3c>
  101cd4:	0027303a 	rdctl	r19,status
  101cd8:	00bfff84 	movi	r2,-2
  101cdc:	9884703a 	and	r2,r19,r2
  101ce0:	1001703a 	wrctl	status,r2
  101ce4:	20c00003 	ldbu	r3,0(r4)
  101ce8:	00800144 	movi	r2,5
  101cec:	18800326 	beq	r3,r2,101cfc <OSFlagNameSet+0x84>
  101cf0:	9801703a 	wrctl	status,r19
  101cf4:	00800044 	movi	r2,1
  101cf8:	003fee06 	br	101cb4 <OSFlagNameSet+0x3c>
  101cfc:	2809883a 	mov	r4,r5
  101d00:	01008480 	call	100848 <OS_StrLen>
  101d04:	10803fcc 	andi	r2,r2,255
  101d08:	00c007c4 	movi	r3,31
  101d0c:	1880032e 	bgeu	r3,r2,101d1c <OSFlagNameSet+0xa4>
  101d10:	9801703a 	wrctl	status,r19
  101d14:	00801cc4 	movi	r2,115
  101d18:	003fe606 	br	101cb4 <OSFlagNameSet+0x3c>
  101d1c:	89000284 	addi	r4,r17,10
  101d20:	900b883a 	mov	r5,r18
  101d24:	010081c0 	call	10081c <OS_StrCopy>
  101d28:	9801703a 	wrctl	status,r19
  101d2c:	80000005 	stb	zero,0(r16)
  101d30:	dfc00417 	ldw	ra,16(sp)
  101d34:	dcc00317 	ldw	r19,12(sp)
  101d38:	dc800217 	ldw	r18,8(sp)
  101d3c:	dc400117 	ldw	r17,4(sp)
  101d40:	dc000017 	ldw	r16,0(sp)
  101d44:	dec00504 	addi	sp,sp,20
  101d48:	f800283a 	ret

00101d4c <OSFlagPend>:
  101d4c:	defff204 	addi	sp,sp,-56
  101d50:	dd000a15 	stw	r20,40(sp)
  101d54:	dd000e17 	ldw	r20,56(sp)
  101d58:	dd800c15 	stw	r22,48(sp)
  101d5c:	dc000615 	stw	r16,24(sp)
  101d60:	dfc00d15 	stw	ra,52(sp)
  101d64:	dd400b15 	stw	r21,44(sp)
  101d68:	dcc00915 	stw	r19,36(sp)
  101d6c:	dc800815 	stw	r18,32(sp)
  101d70:	dc400715 	stw	r17,28(sp)
  101d74:	2021883a 	mov	r16,r4
  101d78:	3813883a 	mov	r9,r7
  101d7c:	302d883a 	mov	r22,r6
  101d80:	a000021e 	bne	r20,zero,101d8c <OSFlagPend+0x40>
  101d84:	000d883a 	mov	r6,zero
  101d88:	0000a506 	br	102020 <OSFlagPend+0x2d4>
  101d8c:	2000031e 	bne	r4,zero,101d9c <OSFlagPend+0x50>
  101d90:	000d883a 	mov	r6,zero
  101d94:	00801b84 	movi	r2,110
  101d98:	00000606 	br	101db4 <OSFlagPend+0x68>
  101d9c:	00800474 	movhi	r2,17
  101da0:	10adff04 	addi	r2,r2,-18436
  101da4:	10800003 	ldbu	r2,0(r2)
  101da8:	10000426 	beq	r2,zero,101dbc <OSFlagPend+0x70>
  101dac:	000d883a 	mov	r6,zero
  101db0:	00800084 	movi	r2,2
  101db4:	a0800005 	stb	r2,0(r20)
  101db8:	00009906 	br	102020 <OSFlagPend+0x2d4>
  101dbc:	00800474 	movhi	r2,17
  101dc0:	10adee04 	addi	r2,r2,-18504
  101dc4:	10800003 	ldbu	r2,0(r2)
  101dc8:	10000326 	beq	r2,zero,101dd8 <OSFlagPend+0x8c>
  101dcc:	000d883a 	mov	r6,zero
  101dd0:	00800344 	movi	r2,13
  101dd4:	003ff706 	br	101db4 <OSFlagPend+0x68>
  101dd8:	20c00003 	ldbu	r3,0(r4)
  101ddc:	00800144 	movi	r2,5
  101de0:	18800326 	beq	r3,r2,101df0 <OSFlagPend+0xa4>
  101de4:	000d883a 	mov	r6,zero
  101de8:	00800044 	movi	r2,1
  101dec:	003ff106 	br	101db4 <OSFlagPend+0x68>
  101df0:	00bfe004 	movi	r2,-128
  101df4:	3084703a 	and	r2,r6,r2
  101df8:	10803fcc 	andi	r2,r2,255
  101dfc:	1000021e 	bne	r2,zero,101e08 <OSFlagPend+0xbc>
  101e00:	002b883a 	mov	r21,zero
  101e04:	00000206 	br	101e10 <OSFlagPend+0xc4>
  101e08:	35801fcc 	andi	r22,r6,127
  101e0c:	05400044 	movi	r21,1
  101e10:	0023303a 	rdctl	r17,status
  101e14:	00bfff84 	movi	r2,-2
  101e18:	8884703a 	and	r2,r17,r2
  101e1c:	1001703a 	wrctl	status,r2
  101e20:	b1c03fcc 	andi	r7,r22,255
  101e24:	02000044 	movi	r8,1
  101e28:	3a003026 	beq	r7,r8,101eec <OSFlagPend+0x1a0>
  101e2c:	3a001d36 	bltu	r7,r8,101ea4 <OSFlagPend+0x158>
  101e30:	00800084 	movi	r2,2
  101e34:	38800326 	beq	r7,r2,101e44 <OSFlagPend+0xf8>
  101e38:	008000c4 	movi	r2,3
  101e3c:	3880421e 	bne	r7,r2,101f48 <OSFlagPend+0x1fc>
  101e40:	00000a06 	br	101e6c <OSFlagPend+0x120>
  101e44:	80c0020b 	ldhu	r3,8(r16)
  101e48:	29bfffcc 	andi	r6,r5,65535
  101e4c:	194a703a 	and	r5,r3,r5
  101e50:	28bfffcc 	andi	r2,r5,65535
  101e54:	1180231e 	bne	r2,r6,101ee4 <OSFlagPend+0x198>
  101e58:	a8803fcc 	andi	r2,r21,255
  101e5c:	12001b1e 	bne	r2,r8,101ecc <OSFlagPend+0x180>
  101e60:	0144303a 	nor	r2,zero,r5
  101e64:	10c4703a 	and	r2,r2,r3
  101e68:	00001706 	br	101ec8 <OSFlagPend+0x17c>
  101e6c:	8100020b 	ldhu	r4,8(r16)
  101e70:	2146703a 	and	r3,r4,r5
  101e74:	19bfffcc 	andi	r6,r3,65535
  101e78:	30003026 	beq	r6,zero,101f3c <OSFlagPend+0x1f0>
  101e7c:	a8803fcc 	andi	r2,r21,255
  101e80:	1200031e 	bne	r2,r8,101e90 <OSFlagPend+0x144>
  101e84:	00c4303a 	nor	r2,zero,r3
  101e88:	1104703a 	and	r2,r2,r4
  101e8c:	8080020d 	sth	r2,8(r16)
  101e90:	00800474 	movhi	r2,17
  101e94:	10ae0004 	addi	r2,r2,-18432
  101e98:	10800017 	ldw	r2,0(r2)
  101e9c:	10c00b0d 	sth	r3,44(r2)
  101ea0:	00000e06 	br	101edc <OSFlagPend+0x190>
  101ea4:	80c0020b 	ldhu	r3,8(r16)
  101ea8:	29bfffcc 	andi	r6,r5,65535
  101eac:	00c4303a 	nor	r2,zero,r3
  101eb0:	114a703a 	and	r5,r2,r5
  101eb4:	28bfffcc 	andi	r2,r5,65535
  101eb8:	11800a1e 	bne	r2,r6,101ee4 <OSFlagPend+0x198>
  101ebc:	a8803fcc 	andi	r2,r21,255
  101ec0:	1200021e 	bne	r2,r8,101ecc <OSFlagPend+0x180>
  101ec4:	28c4b03a 	or	r2,r5,r3
  101ec8:	8080020d 	sth	r2,8(r16)
  101ecc:	00800474 	movhi	r2,17
  101ed0:	10ae0004 	addi	r2,r2,-18432
  101ed4:	10800017 	ldw	r2,0(r2)
  101ed8:	11400b0d 	sth	r5,44(r2)
  101edc:	8801703a 	wrctl	status,r17
  101ee0:	00001406 	br	101f34 <OSFlagPend+0x1e8>
  101ee4:	48bfffcc 	andi	r2,r9,65535
  101ee8:	00001906 	br	101f50 <OSFlagPend+0x204>
  101eec:	8100020b 	ldhu	r4,8(r16)
  101ef0:	0104303a 	nor	r2,zero,r4
  101ef4:	1146703a 	and	r3,r2,r5
  101ef8:	18bfffcc 	andi	r2,r3,65535
  101efc:	10a0001c 	xori	r2,r2,32768
  101f00:	10a00004 	addi	r2,r2,-32768
  101f04:	180d883a 	mov	r6,r3
  101f08:	10000c26 	beq	r2,zero,101f3c <OSFlagPend+0x1f0>
  101f0c:	a8803fcc 	andi	r2,r21,255
  101f10:	11c0021e 	bne	r2,r7,101f1c <OSFlagPend+0x1d0>
  101f14:	1904b03a 	or	r2,r3,r4
  101f18:	8080020d 	sth	r2,8(r16)
  101f1c:	00800474 	movhi	r2,17
  101f20:	10ae0004 	addi	r2,r2,-18432
  101f24:	10800017 	ldw	r2,0(r2)
  101f28:	10c00b0d 	sth	r3,44(r2)
  101f2c:	8801703a 	wrctl	status,r17
  101f30:	31bfffcc 	andi	r6,r6,65535
  101f34:	a0000005 	stb	zero,0(r20)
  101f38:	00003906 	br	102020 <OSFlagPend+0x2d4>
  101f3c:	48bfffcc 	andi	r2,r9,65535
  101f40:	29bfffcc 	andi	r6,r5,65535
  101f44:	00000206 	br	101f50 <OSFlagPend+0x204>
  101f48:	8801703a 	wrctl	status,r17
  101f4c:	00002e06 	br	102008 <OSFlagPend+0x2bc>
  101f50:	8009883a 	mov	r4,r16
  101f54:	d9400104 	addi	r5,sp,4
  101f58:	d8800015 	stw	r2,0(sp)
  101f5c:	01016100 	call	101610 <OS_FlagBlock>
  101f60:	8801703a 	wrctl	status,r17
  101f64:	01008ec0 	call	1008ec <OS_Sched>
  101f68:	0027303a 	rdctl	r19,status
  101f6c:	00bfff84 	movi	r2,-2
  101f70:	9884703a 	and	r2,r19,r2
  101f74:	1001703a 	wrctl	status,r2
  101f78:	04800474 	movhi	r18,17
  101f7c:	94ae0004 	addi	r18,r18,-18432
  101f80:	90800017 	ldw	r2,0(r18)
  101f84:	14400c43 	ldbu	r17,49(r2)
  101f88:	88000e26 	beq	r17,zero,101fc4 <OSFlagPend+0x278>
  101f8c:	10000c45 	stb	zero,49(r2)
  101f90:	d9000104 	addi	r4,sp,4
  101f94:	01016c80 	call	1016c8 <OS_FlagUnlink>
  101f98:	90800017 	ldw	r2,0(r18)
  101f9c:	10000c05 	stb	zero,48(r2)
  101fa0:	9801703a 	wrctl	status,r19
  101fa4:	00800084 	movi	r2,2
  101fa8:	8880031e 	bne	r17,r2,101fb8 <OSFlagPend+0x26c>
  101fac:	000d883a 	mov	r6,zero
  101fb0:	00800384 	movi	r2,14
  101fb4:	003f7f06 	br	101db4 <OSFlagPend+0x68>
  101fb8:	000d883a 	mov	r6,zero
  101fbc:	00800284 	movi	r2,10
  101fc0:	003f7c06 	br	101db4 <OSFlagPend+0x68>
  101fc4:	11800b0b 	ldhu	r6,44(r2)
  101fc8:	a9003fcc 	andi	r4,r21,255
  101fcc:	00800044 	movi	r2,1
  101fd0:	2080101e 	bne	r4,r2,102014 <OSFlagPend+0x2c8>
  101fd4:	b0c03fcc 	andi	r3,r22,255
  101fd8:	20c0062e 	bgeu	r4,r3,101ff4 <OSFlagPend+0x2a8>
  101fdc:	008000c4 	movi	r2,3
  101fe0:	10c00836 	bltu	r2,r3,102004 <OSFlagPend+0x2b8>
  101fe4:	80c0020b 	ldhu	r3,8(r16)
  101fe8:	0184303a 	nor	r2,zero,r6
  101fec:	10c4703a 	and	r2,r2,r3
  101ff0:	00000206 	br	101ffc <OSFlagPend+0x2b0>
  101ff4:	8080020b 	ldhu	r2,8(r16)
  101ff8:	1184b03a 	or	r2,r2,r6
  101ffc:	8080020d 	sth	r2,8(r16)
  102000:	00000406 	br	102014 <OSFlagPend+0x2c8>
  102004:	9801703a 	wrctl	status,r19
  102008:	000d883a 	mov	r6,zero
  10200c:	00801bc4 	movi	r2,111
  102010:	003f6806 	br	101db4 <OSFlagPend+0x68>
  102014:	9801703a 	wrctl	status,r19
  102018:	a0000005 	stb	zero,0(r20)
  10201c:	31bfffcc 	andi	r6,r6,65535
  102020:	3005883a 	mov	r2,r6
  102024:	dfc00d17 	ldw	ra,52(sp)
  102028:	dd800c17 	ldw	r22,48(sp)
  10202c:	dd400b17 	ldw	r21,44(sp)
  102030:	dd000a17 	ldw	r20,40(sp)
  102034:	dcc00917 	ldw	r19,36(sp)
  102038:	dc800817 	ldw	r18,32(sp)
  10203c:	dc400717 	ldw	r17,28(sp)
  102040:	dc000617 	ldw	r16,24(sp)
  102044:	dec00e04 	addi	sp,sp,56
  102048:	f800283a 	ret

0010204c <OSFlagPendGetFlagsRdy>:
  10204c:	0007303a 	rdctl	r3,status
  102050:	00bfff84 	movi	r2,-2
  102054:	1884703a 	and	r2,r3,r2
  102058:	1001703a 	wrctl	status,r2
  10205c:	00800474 	movhi	r2,17
  102060:	10ae0004 	addi	r2,r2,-18432
  102064:	10800017 	ldw	r2,0(r2)
  102068:	10800b0b 	ldhu	r2,44(r2)
  10206c:	1801703a 	wrctl	status,r3
  102070:	10bfffcc 	andi	r2,r2,65535
  102074:	f800283a 	ret

00102078 <OSFlagPost>:
  102078:	defff804 	addi	sp,sp,-32
  10207c:	dd000415 	stw	r20,16(sp)
  102080:	dc800215 	stw	r18,8(sp)
  102084:	dfc00715 	stw	ra,28(sp)
  102088:	dd800615 	stw	r22,24(sp)
  10208c:	dd400515 	stw	r21,20(sp)
  102090:	dcc00315 	stw	r19,12(sp)
  102094:	dc400115 	stw	r17,4(sp)
  102098:	dc000015 	stw	r16,0(sp)
  10209c:	3829883a 	mov	r20,r7
  1020a0:	2025883a 	mov	r18,r4
  1020a4:	3800021e 	bne	r7,zero,1020b0 <OSFlagPost+0x38>
  1020a8:	0007883a 	mov	r3,zero
  1020ac:	00006406 	br	102240 <OSFlagPost+0x1c8>
  1020b0:	2000031e 	bne	r4,zero,1020c0 <OSFlagPost+0x48>
  1020b4:	0007883a 	mov	r3,zero
  1020b8:	00801b84 	movi	r2,110
  1020bc:	00000506 	br	1020d4 <OSFlagPost+0x5c>
  1020c0:	20c00003 	ldbu	r3,0(r4)
  1020c4:	00800144 	movi	r2,5
  1020c8:	18800426 	beq	r3,r2,1020dc <OSFlagPost+0x64>
  1020cc:	0007883a 	mov	r3,zero
  1020d0:	00800044 	movi	r2,1
  1020d4:	a0800005 	stb	r2,0(r20)
  1020d8:	00005906 	br	102240 <OSFlagPost+0x1c8>
  1020dc:	002b303a 	rdctl	r21,status
  1020e0:	00bfff84 	movi	r2,-2
  1020e4:	a884703a 	and	r2,r21,r2
  1020e8:	1001703a 	wrctl	status,r2
  1020ec:	31803fcc 	andi	r6,r6,255
  1020f0:	30000326 	beq	r6,zero,102100 <OSFlagPost+0x88>
  1020f4:	00800044 	movi	r2,1
  1020f8:	30800b1e 	bne	r6,r2,102128 <OSFlagPost+0xb0>
  1020fc:	00000406 	br	102110 <OSFlagPost+0x98>
  102100:	20c0020b 	ldhu	r3,8(r4)
  102104:	0144303a 	nor	r2,zero,r5
  102108:	10c4703a 	and	r2,r2,r3
  10210c:	00000206 	br	102118 <OSFlagPost+0xa0>
  102110:	2080020b 	ldhu	r2,8(r4)
  102114:	2884b03a 	or	r2,r5,r2
  102118:	94400117 	ldw	r17,4(r18)
  10211c:	002d883a 	mov	r22,zero
  102120:	9080020d 	sth	r2,8(r18)
  102124:	00003906 	br	10220c <OSFlagPost+0x194>
  102128:	a801703a 	wrctl	status,r21
  10212c:	0007883a 	mov	r3,zero
  102130:	00801c44 	movi	r2,113
  102134:	003fe706 	br	1020d4 <OSFlagPost+0x5c>
  102138:	8c000483 	ldbu	r16,18(r17)
  10213c:	04c00044 	movi	r19,1
  102140:	84c01e26 	beq	r16,r19,1021bc <OSFlagPost+0x144>
  102144:	84c01236 	bltu	r16,r19,102190 <OSFlagPost+0x118>
  102148:	00800084 	movi	r2,2
  10214c:	80800326 	beq	r16,r2,10215c <OSFlagPost+0xe4>
  102150:	008000c4 	movi	r2,3
  102154:	8080271e 	bne	r16,r2,1021f4 <OSFlagPost+0x17c>
  102158:	00000706 	br	102178 <OSFlagPost+0x100>
  10215c:	8880040b 	ldhu	r2,16(r17)
  102160:	90c0020b 	ldhu	r3,8(r18)
  102164:	1009883a 	mov	r4,r2
  102168:	10c4703a 	and	r2,r2,r3
  10216c:	117fffcc 	andi	r5,r2,65535
  102170:	2900251e 	bne	r5,r4,102208 <OSFlagPost+0x190>
  102174:	00000c06 	br	1021a8 <OSFlagPost+0x130>
  102178:	9080020b 	ldhu	r2,8(r18)
  10217c:	88c0040b 	ldhu	r3,16(r17)
  102180:	10c4703a 	and	r2,r2,r3
  102184:	117fffcc 	andi	r5,r2,65535
  102188:	28001f26 	beq	r5,zero,102208 <OSFlagPost+0x190>
  10218c:	00000606 	br	1021a8 <OSFlagPost+0x130>
  102190:	9080020b 	ldhu	r2,8(r18)
  102194:	88c0040b 	ldhu	r3,16(r17)
  102198:	0084303a 	nor	r2,zero,r2
  10219c:	10c4703a 	and	r2,r2,r3
  1021a0:	117fffcc 	andi	r5,r2,65535
  1021a4:	28c0181e 	bne	r5,r3,102208 <OSFlagPost+0x190>
  1021a8:	8809883a 	mov	r4,r17
  1021ac:	01017040 	call	101704 <OS_FlagTaskRdy>
  1021b0:	10803fcc 	andi	r2,r2,255
  1021b4:	14c0141e 	bne	r2,r19,102208 <OSFlagPost+0x190>
  1021b8:	00001206 	br	102204 <OSFlagPost+0x18c>
  1021bc:	9080020b 	ldhu	r2,8(r18)
  1021c0:	88c0040b 	ldhu	r3,16(r17)
  1021c4:	0084303a 	nor	r2,zero,r2
  1021c8:	10ca703a 	and	r5,r2,r3
  1021cc:	28bfffcc 	andi	r2,r5,65535
  1021d0:	10a0001c 	xori	r2,r2,32768
  1021d4:	10a00004 	addi	r2,r2,-32768
  1021d8:	10000b26 	beq	r2,zero,102208 <OSFlagPost+0x190>
  1021dc:	297fffcc 	andi	r5,r5,65535
  1021e0:	8809883a 	mov	r4,r17
  1021e4:	01017040 	call	101704 <OS_FlagTaskRdy>
  1021e8:	10803fcc 	andi	r2,r2,255
  1021ec:	1400061e 	bne	r2,r16,102208 <OSFlagPost+0x190>
  1021f0:	00000406 	br	102204 <OSFlagPost+0x18c>
  1021f4:	a801703a 	wrctl	status,r21
  1021f8:	0007883a 	mov	r3,zero
  1021fc:	00801bc4 	movi	r2,111
  102200:	003fb406 	br	1020d4 <OSFlagPost+0x5c>
  102204:	05800044 	movi	r22,1
  102208:	8c400017 	ldw	r17,0(r17)
  10220c:	883fca1e 	bne	r17,zero,102138 <OSFlagPost+0xc0>
  102210:	a801703a 	wrctl	status,r21
  102214:	b0c03fcc 	andi	r3,r22,255
  102218:	00800044 	movi	r2,1
  10221c:	1880011e 	bne	r3,r2,102224 <OSFlagPost+0x1ac>
  102220:	01008ec0 	call	1008ec <OS_Sched>
  102224:	0005303a 	rdctl	r2,status
  102228:	00ffff84 	movi	r3,-2
  10222c:	10c6703a 	and	r3,r2,r3
  102230:	1801703a 	wrctl	status,r3
  102234:	90c0020b 	ldhu	r3,8(r18)
  102238:	1001703a 	wrctl	status,r2
  10223c:	a0000005 	stb	zero,0(r20)
  102240:	1805883a 	mov	r2,r3
  102244:	dfc00717 	ldw	ra,28(sp)
  102248:	dd800617 	ldw	r22,24(sp)
  10224c:	dd400517 	ldw	r21,20(sp)
  102250:	dd000417 	ldw	r20,16(sp)
  102254:	dcc00317 	ldw	r19,12(sp)
  102258:	dc800217 	ldw	r18,8(sp)
  10225c:	dc400117 	ldw	r17,4(sp)
  102260:	dc000017 	ldw	r16,0(sp)
  102264:	dec00804 	addi	sp,sp,32
  102268:	f800283a 	ret

0010226c <OS_MemInit>:
  10226c:	deffff04 	addi	sp,sp,-4
  102270:	01430c04 	movi	r5,3120
  102274:	01000474 	movhi	r4,17
  102278:	212fbf04 	addi	r4,r4,-16644
  10227c:	dfc00015 	stw	ra,0(sp)
  102280:	01007dc0 	call	1007dc <OS_MemClr>
  102284:	00c00474 	movhi	r3,17
  102288:	18efcc04 	addi	r3,r3,-16592
  10228c:	01400fc4 	movi	r5,63
  102290:	1882ff04 	addi	r2,r3,3068
  102294:	18fff415 	stw	r3,-48(r3)
  102298:	197ff805 	stb	r5,-32(r3)
  10229c:	183ff845 	stb	zero,-31(r3)
  1022a0:	18c00d04 	addi	r3,r3,52
  1022a4:	18bffb1e 	bne	r3,r2,102294 <OS_MemInit+0x28>
  1022a8:	193cf404 	addi	r4,r3,-3120
  1022ac:	00800474 	movhi	r2,17
  1022b0:	10adfa04 	addi	r2,r2,-18456
  1022b4:	18fff304 	addi	r3,r3,-52
  1022b8:	11000015 	stw	r4,0(r2)
  1022bc:	19400505 	stb	r5,20(r3)
  1022c0:	18000545 	stb	zero,21(r3)
  1022c4:	18000115 	stw	zero,4(r3)
  1022c8:	dfc00017 	ldw	ra,0(sp)
  1022cc:	dec00104 	addi	sp,sp,4
  1022d0:	f800283a 	ret

001022d4 <OSMemQuery>:
  1022d4:	200f883a 	mov	r7,r4
  1022d8:	00801804 	movi	r2,96
  1022dc:	280d883a 	mov	r6,r5
  1022e0:	20001426 	beq	r4,zero,102334 <OSMemQuery+0x60>
  1022e4:	00801844 	movi	r2,97
  1022e8:	28001226 	beq	r5,zero,102334 <OSMemQuery+0x60>
  1022ec:	000b303a 	rdctl	r5,status
  1022f0:	00bfff84 	movi	r2,-2
  1022f4:	2884703a 	and	r2,r5,r2
  1022f8:	1001703a 	wrctl	status,r2
  1022fc:	20800217 	ldw	r2,8(r4)
  102300:	20c00017 	ldw	r3,0(r4)
  102304:	30800215 	stw	r2,8(r6)
  102308:	20800317 	ldw	r2,12(r4)
  10230c:	30c00015 	stw	r3,0(r6)
  102310:	21000117 	ldw	r4,4(r4)
  102314:	30800315 	stw	r2,12(r6)
  102318:	38c00417 	ldw	r3,16(r7)
  10231c:	31000115 	stw	r4,4(r6)
  102320:	30c00415 	stw	r3,16(r6)
  102324:	2801703a 	wrctl	status,r5
  102328:	10c5c83a 	sub	r2,r2,r3
  10232c:	30800515 	stw	r2,20(r6)
  102330:	0005883a 	mov	r2,zero
  102334:	f800283a 	ret

00102338 <OSMemCreate>:
  102338:	3800021e 	bne	r7,zero,102344 <OSMemCreate+0xc>
  10233c:	0015883a 	mov	r10,zero
  102340:	00002f06 	br	102400 <OSMemCreate+0xc8>
  102344:	20000226 	beq	r4,zero,102350 <OSMemCreate+0x18>
  102348:	208000cc 	andi	r2,r4,3
  10234c:	10000326 	beq	r2,zero,10235c <OSMemCreate+0x24>
  102350:	0015883a 	mov	r10,zero
  102354:	00801884 	movi	r2,98
  102358:	00001b06 	br	1023c8 <OSMemCreate+0x90>
  10235c:	02400044 	movi	r9,1
  102360:	49400336 	bltu	r9,r5,102370 <OSMemCreate+0x38>
  102364:	0015883a 	mov	r10,zero
  102368:	008016c4 	movi	r2,91
  10236c:	00001606 	br	1023c8 <OSMemCreate+0x90>
  102370:	008000c4 	movi	r2,3
  102374:	11800336 	bltu	r2,r6,102384 <OSMemCreate+0x4c>
  102378:	0015883a 	mov	r10,zero
  10237c:	00801704 	movi	r2,92
  102380:	00001106 	br	1023c8 <OSMemCreate+0x90>
  102384:	0007303a 	rdctl	r3,status
  102388:	00bfff84 	movi	r2,-2
  10238c:	1884703a 	and	r2,r3,r2
  102390:	1001703a 	wrctl	status,r2
  102394:	02000474 	movhi	r8,17
  102398:	422dfa04 	addi	r8,r8,-18456
  10239c:	42800017 	ldw	r10,0(r8)
  1023a0:	50000726 	beq	r10,zero,1023c0 <OSMemCreate+0x88>
  1023a4:	50800117 	ldw	r2,4(r10)
  1023a8:	40800015 	stw	r2,0(r8)
  1023ac:	1801703a 	wrctl	status,r3
  1023b0:	4811883a 	mov	r8,r9
  1023b4:	2005883a 	mov	r2,r4
  1023b8:	2187883a 	add	r3,r4,r6
  1023bc:	00000406 	br	1023d0 <OSMemCreate+0x98>
  1023c0:	1801703a 	wrctl	status,r3
  1023c4:	00801684 	movi	r2,90
  1023c8:	38800005 	stb	r2,0(r7)
  1023cc:	00000c06 	br	102400 <OSMemCreate+0xc8>
  1023d0:	42000044 	addi	r8,r8,1
  1023d4:	10c00015 	stw	r3,0(r2)
  1023d8:	1805883a 	mov	r2,r3
  1023dc:	1987883a 	add	r3,r3,r6
  1023e0:	417ffb1e 	bne	r8,r5,1023d0 <OSMemCreate+0x98>
  1023e4:	10000015 	stw	zero,0(r2)
  1023e8:	51000115 	stw	r4,4(r10)
  1023ec:	51400315 	stw	r5,12(r10)
  1023f0:	51800215 	stw	r6,8(r10)
  1023f4:	51000015 	stw	r4,0(r10)
  1023f8:	51400415 	stw	r5,16(r10)
  1023fc:	38000005 	stb	zero,0(r7)
  102400:	5005883a 	mov	r2,r10
  102404:	f800283a 	ret

00102408 <OSMemGet>:
  102408:	000f883a 	mov	r7,zero
  10240c:	28001726 	beq	r5,zero,10246c <OSMemGet+0x64>
  102410:	000f883a 	mov	r7,zero
  102414:	2000031e 	bne	r4,zero,102424 <OSMemGet+0x1c>
  102418:	00801804 	movi	r2,96
  10241c:	28800005 	stb	r2,0(r5)
  102420:	00001206 	br	10246c <OSMemGet+0x64>
  102424:	000d303a 	rdctl	r6,status
  102428:	00bfff84 	movi	r2,-2
  10242c:	3084703a 	and	r2,r6,r2
  102430:	1001703a 	wrctl	status,r2
  102434:	20800417 	ldw	r2,16(r4)
  102438:	10ffffc4 	addi	r3,r2,-1
  10243c:	10000726 	beq	r2,zero,10245c <OSMemGet+0x54>
  102440:	21c00117 	ldw	r7,4(r4)
  102444:	20c00415 	stw	r3,16(r4)
  102448:	38800017 	ldw	r2,0(r7)
  10244c:	20800115 	stw	r2,4(r4)
  102450:	3001703a 	wrctl	status,r6
  102454:	28000005 	stb	zero,0(r5)
  102458:	00000406 	br	10246c <OSMemGet+0x64>
  10245c:	3001703a 	wrctl	status,r6
  102460:	00801744 	movi	r2,93
  102464:	28800005 	stb	r2,0(r5)
  102468:	000f883a 	mov	r7,zero
  10246c:	3805883a 	mov	r2,r7
  102470:	f800283a 	ret

00102474 <OSMemNameGet>:
  102474:	defffd04 	addi	sp,sp,-12
  102478:	dfc00215 	stw	ra,8(sp)
  10247c:	dc000115 	stw	r16,4(sp)
  102480:	000f883a 	mov	r7,zero
  102484:	2007883a 	mov	r3,r4
  102488:	30001c26 	beq	r6,zero,1024fc <OSMemNameGet+0x88>
  10248c:	000f883a 	mov	r7,zero
  102490:	2000021e 	bne	r4,zero,10249c <OSMemNameGet+0x28>
  102494:	00801804 	movi	r2,96
  102498:	00000306 	br	1024a8 <OSMemNameGet+0x34>
  10249c:	000f883a 	mov	r7,zero
  1024a0:	2800031e 	bne	r5,zero,1024b0 <OSMemNameGet+0x3c>
  1024a4:	00800304 	movi	r2,12
  1024a8:	30800005 	stb	r2,0(r6)
  1024ac:	00001306 	br	1024fc <OSMemNameGet+0x88>
  1024b0:	00800474 	movhi	r2,17
  1024b4:	10adff04 	addi	r2,r2,-18436
  1024b8:	10800003 	ldbu	r2,0(r2)
  1024bc:	000f883a 	mov	r7,zero
  1024c0:	10000226 	beq	r2,zero,1024cc <OSMemNameGet+0x58>
  1024c4:	00800444 	movi	r2,17
  1024c8:	003ff706 	br	1024a8 <OSMemNameGet+0x34>
  1024cc:	0021303a 	rdctl	r16,status
  1024d0:	00bfff84 	movi	r2,-2
  1024d4:	8084703a 	and	r2,r16,r2
  1024d8:	1001703a 	wrctl	status,r2
  1024dc:	2809883a 	mov	r4,r5
  1024e0:	19400504 	addi	r5,r3,20
  1024e4:	d9800015 	stw	r6,0(sp)
  1024e8:	010081c0 	call	10081c <OS_StrCopy>
  1024ec:	8001703a 	wrctl	status,r16
  1024f0:	d9800017 	ldw	r6,0(sp)
  1024f4:	11c03fcc 	andi	r7,r2,255
  1024f8:	30000005 	stb	zero,0(r6)
  1024fc:	3805883a 	mov	r2,r7
  102500:	dfc00217 	ldw	ra,8(sp)
  102504:	dc000117 	ldw	r16,4(sp)
  102508:	dec00304 	addi	sp,sp,12
  10250c:	f800283a 	ret

00102510 <OSMemNameSet>:
  102510:	defffb04 	addi	sp,sp,-20
  102514:	dcc00315 	stw	r19,12(sp)
  102518:	dc400115 	stw	r17,4(sp)
  10251c:	dc000015 	stw	r16,0(sp)
  102520:	dfc00415 	stw	ra,16(sp)
  102524:	dc800215 	stw	r18,8(sp)
  102528:	3023883a 	mov	r17,r6
  10252c:	2027883a 	mov	r19,r4
  102530:	2821883a 	mov	r16,r5
  102534:	30001e26 	beq	r6,zero,1025b0 <OSMemNameSet+0xa0>
  102538:	2000021e 	bne	r4,zero,102544 <OSMemNameSet+0x34>
  10253c:	00801804 	movi	r2,96
  102540:	00000206 	br	10254c <OSMemNameSet+0x3c>
  102544:	2800031e 	bne	r5,zero,102554 <OSMemNameSet+0x44>
  102548:	00800304 	movi	r2,12
  10254c:	88800005 	stb	r2,0(r17)
  102550:	00001706 	br	1025b0 <OSMemNameSet+0xa0>
  102554:	00800474 	movhi	r2,17
  102558:	10adff04 	addi	r2,r2,-18436
  10255c:	10800003 	ldbu	r2,0(r2)
  102560:	10000226 	beq	r2,zero,10256c <OSMemNameSet+0x5c>
  102564:	00800484 	movi	r2,18
  102568:	003ff806 	br	10254c <OSMemNameSet+0x3c>
  10256c:	0025303a 	rdctl	r18,status
  102570:	00bfff84 	movi	r2,-2
  102574:	9084703a 	and	r2,r18,r2
  102578:	1001703a 	wrctl	status,r2
  10257c:	2809883a 	mov	r4,r5
  102580:	01008480 	call	100848 <OS_StrLen>
  102584:	10803fcc 	andi	r2,r2,255
  102588:	00c007c4 	movi	r3,31
  10258c:	1880032e 	bgeu	r3,r2,10259c <OSMemNameSet+0x8c>
  102590:	9001703a 	wrctl	status,r18
  102594:	008018c4 	movi	r2,99
  102598:	003fec06 	br	10254c <OSMemNameSet+0x3c>
  10259c:	99000504 	addi	r4,r19,20
  1025a0:	800b883a 	mov	r5,r16
  1025a4:	010081c0 	call	10081c <OS_StrCopy>
  1025a8:	9001703a 	wrctl	status,r18
  1025ac:	88000005 	stb	zero,0(r17)
  1025b0:	dfc00417 	ldw	ra,16(sp)
  1025b4:	dcc00317 	ldw	r19,12(sp)
  1025b8:	dc800217 	ldw	r18,8(sp)
  1025bc:	dc400117 	ldw	r17,4(sp)
  1025c0:	dc000017 	ldw	r16,0(sp)
  1025c4:	dec00504 	addi	sp,sp,20
  1025c8:	f800283a 	ret

001025cc <OSMemPut>:
  1025cc:	00801804 	movi	r2,96
  1025d0:	20001326 	beq	r4,zero,102620 <OSMemPut+0x54>
  1025d4:	008017c4 	movi	r2,95
  1025d8:	28001126 	beq	r5,zero,102620 <OSMemPut+0x54>
  1025dc:	000f303a 	rdctl	r7,status
  1025e0:	00bfff84 	movi	r2,-2
  1025e4:	3884703a 	and	r2,r7,r2
  1025e8:	1001703a 	wrctl	status,r2
  1025ec:	20800417 	ldw	r2,16(r4)
  1025f0:	20c00317 	ldw	r3,12(r4)
  1025f4:	11800044 	addi	r6,r2,1
  1025f8:	10c00336 	bltu	r2,r3,102608 <OSMemPut+0x3c>
  1025fc:	3801703a 	wrctl	status,r7
  102600:	00801784 	movi	r2,94
  102604:	f800283a 	ret
  102608:	20800117 	ldw	r2,4(r4)
  10260c:	21800415 	stw	r6,16(r4)
  102610:	28800015 	stw	r2,0(r5)
  102614:	21400115 	stw	r5,4(r4)
  102618:	3801703a 	wrctl	status,r7
  10261c:	0005883a 	mov	r2,zero
  102620:	f800283a 	ret

00102624 <OS_QInit>:
  102624:	deffff04 	addi	sp,sp,-4
  102628:	01000474 	movhi	r4,17
  10262c:	2134cb04 	addi	r4,r4,-11476
  102630:	01407804 	movi	r5,480
  102634:	dfc00015 	stw	ra,0(sp)
  102638:	01007dc0 	call	1007dc <OS_MemClr>
  10263c:	01000474 	movhi	r4,17
  102640:	2134d104 	addi	r4,r4,-11452
  102644:	20807204 	addi	r2,r4,456
  102648:	213ffa15 	stw	r4,-24(r4)
  10264c:	21000604 	addi	r4,r4,24
  102650:	20bffd1e 	bne	r4,r2,102648 <OS_QInit+0x24>
  102654:	20ff8804 	addi	r3,r4,-480
  102658:	00800474 	movhi	r2,17
  10265c:	10adfc04 	addi	r2,r2,-18448
  102660:	10c00015 	stw	r3,0(r2)
  102664:	203ffa15 	stw	zero,-24(r4)
  102668:	dfc00017 	ldw	ra,0(sp)
  10266c:	dec00104 	addi	sp,sp,4
  102670:	f800283a 	ret

00102674 <OSQQuery>:
  102674:	2000021e 	bne	r4,zero,102680 <OSQQuery+0xc>
  102678:	00800104 	movi	r2,4
  10267c:	f800283a 	ret
  102680:	2800021e 	bne	r5,zero,10268c <OSQQuery+0x18>
  102684:	00800244 	movi	r2,9
  102688:	f800283a 	ret
  10268c:	20c00003 	ldbu	r3,0(r4)
  102690:	00800084 	movi	r2,2
  102694:	18800226 	beq	r3,r2,1026a0 <OSQQuery+0x2c>
  102698:	00800044 	movi	r2,1
  10269c:	f800283a 	ret
  1026a0:	0007303a 	rdctl	r3,status
  1026a4:	00bfff84 	movi	r2,-2
  1026a8:	1884703a 	and	r2,r3,r2
  1026ac:	1001703a 	wrctl	status,r2
  1026b0:	20800283 	ldbu	r2,10(r4)
  1026b4:	288002c5 	stb	r2,11(r5)
  1026b8:	208002c3 	ldbu	r2,11(r4)
  1026bc:	28800205 	stb	r2,8(r5)
  1026c0:	20800303 	ldbu	r2,12(r4)
  1026c4:	28800245 	stb	r2,9(r5)
  1026c8:	20800343 	ldbu	r2,13(r4)
  1026cc:	28800285 	stb	r2,10(r5)
  1026d0:	21000117 	ldw	r4,4(r4)
  1026d4:	2080058b 	ldhu	r2,22(r4)
  1026d8:	10000426 	beq	r2,zero,1026ec <OSQQuery+0x78>
  1026dc:	20800417 	ldw	r2,16(r4)
  1026e0:	10800017 	ldw	r2,0(r2)
  1026e4:	28800015 	stw	r2,0(r5)
  1026e8:	00000106 	br	1026f0 <OSQQuery+0x7c>
  1026ec:	28000015 	stw	zero,0(r5)
  1026f0:	2080058b 	ldhu	r2,22(r4)
  1026f4:	2880010d 	sth	r2,4(r5)
  1026f8:	2080050b 	ldhu	r2,20(r4)
  1026fc:	2880018d 	sth	r2,6(r5)
  102700:	1801703a 	wrctl	status,r3
  102704:	0005883a 	mov	r2,zero
  102708:	f800283a 	ret

0010270c <OSQAccept>:
  10270c:	280f883a 	mov	r7,r5
  102710:	2800021e 	bne	r5,zero,10271c <OSQAccept+0x10>
  102714:	0009883a 	mov	r4,zero
  102718:	00002106 	br	1027a0 <OSQAccept+0x94>
  10271c:	2000021e 	bne	r4,zero,102728 <OSQAccept+0x1c>
  102720:	00800104 	movi	r2,4
  102724:	00000506 	br	10273c <OSQAccept+0x30>
  102728:	20c00003 	ldbu	r3,0(r4)
  10272c:	00800084 	movi	r2,2
  102730:	18800426 	beq	r3,r2,102744 <OSQAccept+0x38>
  102734:	0009883a 	mov	r4,zero
  102738:	00800044 	movi	r2,1
  10273c:	38800005 	stb	r2,0(r7)
  102740:	00001706 	br	1027a0 <OSQAccept+0x94>
  102744:	0011303a 	rdctl	r8,status
  102748:	00bfff84 	movi	r2,-2
  10274c:	4084703a 	and	r2,r8,r2
  102750:	1001703a 	wrctl	status,r2
  102754:	21800117 	ldw	r6,4(r4)
  102758:	3080058b 	ldhu	r2,22(r6)
  10275c:	10000c26 	beq	r2,zero,102790 <OSQAccept+0x84>
  102760:	31000417 	ldw	r4,16(r6)
  102764:	31400217 	ldw	r5,8(r6)
  102768:	10bfffc4 	addi	r2,r2,-1
  10276c:	20c00104 	addi	r3,r4,4
  102770:	3080058d 	sth	r2,22(r6)
  102774:	30c00415 	stw	r3,16(r6)
  102778:	21000017 	ldw	r4,0(r4)
  10277c:	1940021e 	bne	r3,r5,102788 <OSQAccept+0x7c>
  102780:	30800117 	ldw	r2,4(r6)
  102784:	30800415 	stw	r2,16(r6)
  102788:	38000005 	stb	zero,0(r7)
  10278c:	00000306 	br	10279c <OSQAccept+0x90>
  102790:	008007c4 	movi	r2,31
  102794:	28800005 	stb	r2,0(r5)
  102798:	0009883a 	mov	r4,zero
  10279c:	4001703a 	wrctl	status,r8
  1027a0:	2005883a 	mov	r2,r4
  1027a4:	f800283a 	ret

001027a8 <OSQCreate>:
  1027a8:	defffe04 	addi	sp,sp,-8
  1027ac:	dc000015 	stw	r16,0(sp)
  1027b0:	dfc00115 	stw	ra,4(sp)
  1027b4:	00800474 	movhi	r2,17
  1027b8:	10adff04 	addi	r2,r2,-18436
  1027bc:	10800003 	ldbu	r2,0(r2)
  1027c0:	0021883a 	mov	r16,zero
  1027c4:	1000331e 	bne	r2,zero,102894 <OSQCreate+0xec>
  1027c8:	0007303a 	rdctl	r3,status
  1027cc:	023fff84 	movi	r8,-2
  1027d0:	1a04703a 	and	r2,r3,r8
  1027d4:	1001703a 	wrctl	status,r2
  1027d8:	01800474 	movhi	r6,17
  1027dc:	31adfe04 	addi	r6,r6,-18440
  1027e0:	34000017 	ldw	r16,0(r6)
  1027e4:	80000b26 	beq	r16,zero,102814 <OSQCreate+0x6c>
  1027e8:	80800117 	ldw	r2,4(r16)
  1027ec:	30800015 	stw	r2,0(r6)
  1027f0:	1801703a 	wrctl	status,r3
  1027f4:	000f303a 	rdctl	r7,status
  1027f8:	3a04703a 	and	r2,r7,r8
  1027fc:	1001703a 	wrctl	status,r2
  102800:	01800474 	movhi	r6,17
  102804:	31adfc04 	addi	r6,r6,-18448
  102808:	30c00017 	ldw	r3,0(r6)
  10280c:	1800031e 	bne	r3,zero,10281c <OSQCreate+0x74>
  102810:	00001906 	br	102878 <OSQCreate+0xd0>
  102814:	1801703a 	wrctl	status,r3
  102818:	00001e06 	br	102894 <OSQCreate+0xec>
  10281c:	18800017 	ldw	r2,0(r3)
  102820:	30800015 	stw	r2,0(r6)
  102824:	3801703a 	wrctl	status,r7
  102828:	28bfffcc 	andi	r2,r5,65535
  10282c:	1085883a 	add	r2,r2,r2
  102830:	1085883a 	add	r2,r2,r2
  102834:	2085883a 	add	r2,r4,r2
  102838:	1940050d 	sth	r5,20(r3)
  10283c:	18800215 	stw	r2,8(r3)
  102840:	19000415 	stw	r4,16(r3)
  102844:	1800058d 	sth	zero,22(r3)
  102848:	19000115 	stw	r4,4(r3)
  10284c:	19000315 	stw	r4,12(r3)
  102850:	00800084 	movi	r2,2
  102854:	80800005 	stb	r2,0(r16)
  102858:	00800fc4 	movi	r2,63
  10285c:	80c00115 	stw	r3,4(r16)
  102860:	80800385 	stb	r2,14(r16)
  102864:	8000020d 	sth	zero,8(r16)
  102868:	800003c5 	stb	zero,15(r16)
  10286c:	8009883a 	mov	r4,r16
  102870:	01007c00 	call	1007c0 <OS_EventWaitListInit>
  102874:	00000706 	br	102894 <OSQCreate+0xec>
  102878:	00800474 	movhi	r2,17
  10287c:	10adfe04 	addi	r2,r2,-18440
  102880:	10c00017 	ldw	r3,0(r2)
  102884:	14000015 	stw	r16,0(r2)
  102888:	80c00115 	stw	r3,4(r16)
  10288c:	3801703a 	wrctl	status,r7
  102890:	0021883a 	mov	r16,zero
  102894:	8005883a 	mov	r2,r16
  102898:	dfc00117 	ldw	ra,4(sp)
  10289c:	dc000017 	ldw	r16,0(sp)
  1028a0:	dec00204 	addi	sp,sp,8
  1028a4:	f800283a 	ret

001028a8 <OSQDel>:
  1028a8:	defffb04 	addi	sp,sp,-20
  1028ac:	dc400115 	stw	r17,4(sp)
  1028b0:	dc000015 	stw	r16,0(sp)
  1028b4:	dfc00415 	stw	ra,16(sp)
  1028b8:	dcc00315 	stw	r19,12(sp)
  1028bc:	dc800215 	stw	r18,8(sp)
  1028c0:	3023883a 	mov	r17,r6
  1028c4:	2021883a 	mov	r16,r4
  1028c8:	30005026 	beq	r6,zero,102a0c <OSQDel+0x164>
  1028cc:	2000021e 	bne	r4,zero,1028d8 <OSQDel+0x30>
  1028d0:	00800104 	movi	r2,4
  1028d4:	00004c06 	br	102a08 <OSQDel+0x160>
  1028d8:	20c00003 	ldbu	r3,0(r4)
  1028dc:	00800084 	movi	r2,2
  1028e0:	18800226 	beq	r3,r2,1028ec <OSQDel+0x44>
  1028e4:	00800044 	movi	r2,1
  1028e8:	00004706 	br	102a08 <OSQDel+0x160>
  1028ec:	00800474 	movhi	r2,17
  1028f0:	10adff04 	addi	r2,r2,-18436
  1028f4:	10800003 	ldbu	r2,0(r2)
  1028f8:	10000226 	beq	r2,zero,102904 <OSQDel+0x5c>
  1028fc:	008003c4 	movi	r2,15
  102900:	00004106 	br	102a08 <OSQDel+0x160>
  102904:	0025303a 	rdctl	r18,status
  102908:	00bfff84 	movi	r2,-2
  10290c:	9084703a 	and	r2,r18,r2
  102910:	1001703a 	wrctl	status,r2
  102914:	20800283 	ldbu	r2,10(r4)
  102918:	29403fcc 	andi	r5,r5,255
  10291c:	1004c03a 	cmpne	r2,r2,zero
  102920:	1027883a 	mov	r19,r2
  102924:	28000326 	beq	r5,zero,102934 <OSQDel+0x8c>
  102928:	00800044 	movi	r2,1
  10292c:	2880341e 	bne	r5,r2,102a00 <OSQDel+0x158>
  102930:	00001706 	br	102990 <OSQDel+0xe8>
  102934:	1000121e 	bne	r2,zero,102980 <OSQDel+0xd8>
  102938:	00800fc4 	movi	r2,63
  10293c:	20800385 	stb	r2,14(r4)
  102940:	200003c5 	stb	zero,15(r4)
  102944:	01000474 	movhi	r4,17
  102948:	212dfc04 	addi	r4,r4,-18448
  10294c:	20800017 	ldw	r2,0(r4)
  102950:	80c00117 	ldw	r3,4(r16)
  102954:	01400474 	movhi	r5,17
  102958:	296dfe04 	addi	r5,r5,-18440
  10295c:	8000020d 	sth	zero,8(r16)
  102960:	18800015 	stw	r2,0(r3)
  102964:	20c00015 	stw	r3,0(r4)
  102968:	80000005 	stb	zero,0(r16)
  10296c:	28800017 	ldw	r2,0(r5)
  102970:	2c000015 	stw	r16,0(r5)
  102974:	80800115 	stw	r2,4(r16)
  102978:	9001703a 	wrctl	status,r18
  10297c:	00001d06 	br	1029f4 <OSQDel+0x14c>
  102980:	9001703a 	wrctl	status,r18
  102984:	00801244 	movi	r2,73
  102988:	00001f06 	br	102a08 <OSQDel+0x160>
  10298c:	01006cc0 	call	1006cc <OS_EventTaskRdy>
  102990:	80800283 	ldbu	r2,10(r16)
  102994:	8009883a 	mov	r4,r16
  102998:	000b883a 	mov	r5,zero
  10299c:	01800104 	movi	r6,4
  1029a0:	000f883a 	mov	r7,zero
  1029a4:	103ff91e 	bne	r2,zero,10298c <OSQDel+0xe4>
  1029a8:	00800fc4 	movi	r2,63
  1029ac:	80800385 	stb	r2,14(r16)
  1029b0:	800003c5 	stb	zero,15(r16)
  1029b4:	01000474 	movhi	r4,17
  1029b8:	212dfc04 	addi	r4,r4,-18448
  1029bc:	20800017 	ldw	r2,0(r4)
  1029c0:	80c00117 	ldw	r3,4(r16)
  1029c4:	01400474 	movhi	r5,17
  1029c8:	296dfe04 	addi	r5,r5,-18440
  1029cc:	8000020d 	sth	zero,8(r16)
  1029d0:	18800015 	stw	r2,0(r3)
  1029d4:	20c00015 	stw	r3,0(r4)
  1029d8:	80000005 	stb	zero,0(r16)
  1029dc:	28800017 	ldw	r2,0(r5)
  1029e0:	2c000015 	stw	r16,0(r5)
  1029e4:	80800115 	stw	r2,4(r16)
  1029e8:	9001703a 	wrctl	status,r18
  1029ec:	98000126 	beq	r19,zero,1029f4 <OSQDel+0x14c>
  1029f0:	01008ec0 	call	1008ec <OS_Sched>
  1029f4:	0021883a 	mov	r16,zero
  1029f8:	88000005 	stb	zero,0(r17)
  1029fc:	00000306 	br	102a0c <OSQDel+0x164>
  102a00:	9001703a 	wrctl	status,r18
  102a04:	008001c4 	movi	r2,7
  102a08:	88800005 	stb	r2,0(r17)
  102a0c:	8005883a 	mov	r2,r16
  102a10:	dfc00417 	ldw	ra,16(sp)
  102a14:	dcc00317 	ldw	r19,12(sp)
  102a18:	dc800217 	ldw	r18,8(sp)
  102a1c:	dc400117 	ldw	r17,4(sp)
  102a20:	dc000017 	ldw	r16,0(sp)
  102a24:	dec00504 	addi	sp,sp,20
  102a28:	f800283a 	ret

00102a2c <OSQFlush>:
  102a2c:	200b883a 	mov	r5,r4
  102a30:	01000104 	movi	r4,4
  102a34:	28000f26 	beq	r5,zero,102a74 <OSQFlush+0x48>
  102a38:	28c00003 	ldbu	r3,0(r5)
  102a3c:	00800084 	movi	r2,2
  102a40:	01000044 	movi	r4,1
  102a44:	18800b1e 	bne	r3,r2,102a74 <OSQFlush+0x48>
  102a48:	0009303a 	rdctl	r4,status
  102a4c:	00bfff84 	movi	r2,-2
  102a50:	2084703a 	and	r2,r4,r2
  102a54:	1001703a 	wrctl	status,r2
  102a58:	28800117 	ldw	r2,4(r5)
  102a5c:	10c00117 	ldw	r3,4(r2)
  102a60:	1000058d 	sth	zero,22(r2)
  102a64:	10c00415 	stw	r3,16(r2)
  102a68:	10c00315 	stw	r3,12(r2)
  102a6c:	2001703a 	wrctl	status,r4
  102a70:	0009883a 	mov	r4,zero
  102a74:	2005883a 	mov	r2,r4
  102a78:	f800283a 	ret

00102a7c <OSQPend>:
  102a7c:	defff904 	addi	sp,sp,-28
  102a80:	dc800215 	stw	r18,8(sp)
  102a84:	dc400115 	stw	r17,4(sp)
  102a88:	dfc00615 	stw	ra,24(sp)
  102a8c:	dd400515 	stw	r21,20(sp)
  102a90:	dd000415 	stw	r20,16(sp)
  102a94:	dcc00315 	stw	r19,12(sp)
  102a98:	dc000015 	stw	r16,0(sp)
  102a9c:	3023883a 	mov	r17,r6
  102aa0:	2025883a 	mov	r18,r4
  102aa4:	3000021e 	bne	r6,zero,102ab0 <OSQPend+0x34>
  102aa8:	0009883a 	mov	r4,zero
  102aac:	00005906 	br	102c14 <OSQPend+0x198>
  102ab0:	2000031e 	bne	r4,zero,102ac0 <OSQPend+0x44>
  102ab4:	0009883a 	mov	r4,zero
  102ab8:	00800104 	movi	r2,4
  102abc:	00000506 	br	102ad4 <OSQPend+0x58>
  102ac0:	24c00003 	ldbu	r19,0(r4)
  102ac4:	00800084 	movi	r2,2
  102ac8:	98800426 	beq	r19,r2,102adc <OSQPend+0x60>
  102acc:	0009883a 	mov	r4,zero
  102ad0:	00800044 	movi	r2,1
  102ad4:	88800005 	stb	r2,0(r17)
  102ad8:	00004e06 	br	102c14 <OSQPend+0x198>
  102adc:	00800474 	movhi	r2,17
  102ae0:	10adff04 	addi	r2,r2,-18436
  102ae4:	10800003 	ldbu	r2,0(r2)
  102ae8:	10000326 	beq	r2,zero,102af8 <OSQPend+0x7c>
  102aec:	0009883a 	mov	r4,zero
  102af0:	34c00005 	stb	r19,0(r6)
  102af4:	00004706 	br	102c14 <OSQPend+0x198>
  102af8:	00800474 	movhi	r2,17
  102afc:	10adee04 	addi	r2,r2,-18504
  102b00:	10800003 	ldbu	r2,0(r2)
  102b04:	10000326 	beq	r2,zero,102b14 <OSQPend+0x98>
  102b08:	0009883a 	mov	r4,zero
  102b0c:	00800344 	movi	r2,13
  102b10:	003ff006 	br	102ad4 <OSQPend+0x58>
  102b14:	0029303a 	rdctl	r20,status
  102b18:	057fff84 	movi	r21,-2
  102b1c:	a544703a 	and	r2,r20,r21
  102b20:	1001703a 	wrctl	status,r2
  102b24:	21800117 	ldw	r6,4(r4)
  102b28:	3080058b 	ldhu	r2,22(r6)
  102b2c:	10000d26 	beq	r2,zero,102b64 <OSQPend+0xe8>
  102b30:	31000417 	ldw	r4,16(r6)
  102b34:	31400217 	ldw	r5,8(r6)
  102b38:	10bfffc4 	addi	r2,r2,-1
  102b3c:	20c00104 	addi	r3,r4,4
  102b40:	3080058d 	sth	r2,22(r6)
  102b44:	30c00415 	stw	r3,16(r6)
  102b48:	21000017 	ldw	r4,0(r4)
  102b4c:	1940021e 	bne	r3,r5,102b58 <OSQPend+0xdc>
  102b50:	30800117 	ldw	r2,4(r6)
  102b54:	30800415 	stw	r2,16(r6)
  102b58:	a001703a 	wrctl	status,r20
  102b5c:	88000005 	stb	zero,0(r17)
  102b60:	00002c06 	br	102c14 <OSQPend+0x198>
  102b64:	04000474 	movhi	r16,17
  102b68:	842e0004 	addi	r16,r16,-18432
  102b6c:	80c00017 	ldw	r3,0(r16)
  102b70:	18800c03 	ldbu	r2,48(r3)
  102b74:	10800114 	ori	r2,r2,4
  102b78:	18800c05 	stb	r2,48(r3)
  102b7c:	80800017 	ldw	r2,0(r16)
  102b80:	10000c45 	stb	zero,49(r2)
  102b84:	80800017 	ldw	r2,0(r16)
  102b88:	11400b8d 	sth	r5,46(r2)
  102b8c:	01005000 	call	100500 <OS_EventTaskWait>
  102b90:	a001703a 	wrctl	status,r20
  102b94:	01008ec0 	call	1008ec <OS_Sched>
  102b98:	0029303a 	rdctl	r20,status
  102b9c:	a544703a 	and	r2,r20,r21
  102ba0:	1001703a 	wrctl	status,r2
  102ba4:	81000017 	ldw	r4,0(r16)
  102ba8:	20800c43 	ldbu	r2,49(r4)
  102bac:	10000226 	beq	r2,zero,102bb8 <OSQPend+0x13c>
  102bb0:	14c0081e 	bne	r2,r19,102bd4 <OSQPend+0x158>
  102bb4:	00000306 	br	102bc4 <OSQPend+0x148>
  102bb8:	21000917 	ldw	r4,36(r4)
  102bbc:	88000005 	stb	zero,0(r17)
  102bc0:	00000906 	br	102be8 <OSQPend+0x16c>
  102bc4:	00800384 	movi	r2,14
  102bc8:	0009883a 	mov	r4,zero
  102bcc:	88800005 	stb	r2,0(r17)
  102bd0:	00000506 	br	102be8 <OSQPend+0x16c>
  102bd4:	900b883a 	mov	r5,r18
  102bd8:	01006240 	call	100624 <OS_EventTaskRemove>
  102bdc:	00800284 	movi	r2,10
  102be0:	88800005 	stb	r2,0(r17)
  102be4:	0009883a 	mov	r4,zero
  102be8:	00c00474 	movhi	r3,17
  102bec:	18ee0004 	addi	r3,r3,-18432
  102bf0:	18800017 	ldw	r2,0(r3)
  102bf4:	10000c05 	stb	zero,48(r2)
  102bf8:	18800017 	ldw	r2,0(r3)
  102bfc:	10000c45 	stb	zero,49(r2)
  102c00:	18800017 	ldw	r2,0(r3)
  102c04:	10000915 	stw	zero,36(r2)
  102c08:	10000715 	stw	zero,28(r2)
  102c0c:	10000815 	stw	zero,32(r2)
  102c10:	a001703a 	wrctl	status,r20
  102c14:	2005883a 	mov	r2,r4
  102c18:	dfc00617 	ldw	ra,24(sp)
  102c1c:	dd400517 	ldw	r21,20(sp)
  102c20:	dd000417 	ldw	r20,16(sp)
  102c24:	dcc00317 	ldw	r19,12(sp)
  102c28:	dc800217 	ldw	r18,8(sp)
  102c2c:	dc400117 	ldw	r17,4(sp)
  102c30:	dc000017 	ldw	r16,0(sp)
  102c34:	dec00704 	addi	sp,sp,28
  102c38:	f800283a 	ret

00102c3c <OSQPendAbort>:
  102c3c:	defffb04 	addi	sp,sp,-20
  102c40:	dc800215 	stw	r18,8(sp)
  102c44:	dc000015 	stw	r16,0(sp)
  102c48:	dfc00415 	stw	ra,16(sp)
  102c4c:	dcc00315 	stw	r19,12(sp)
  102c50:	dc400115 	stw	r17,4(sp)
  102c54:	3025883a 	mov	r18,r6
  102c58:	2021883a 	mov	r16,r4
  102c5c:	30002826 	beq	r6,zero,102d00 <OSQPendAbort+0xc4>
  102c60:	2000031e 	bne	r4,zero,102c70 <OSQPendAbort+0x34>
  102c64:	0007883a 	mov	r3,zero
  102c68:	00800104 	movi	r2,4
  102c6c:	00002006 	br	102cf0 <OSQPendAbort+0xb4>
  102c70:	21c00003 	ldbu	r7,0(r4)
  102c74:	00800084 	movi	r2,2
  102c78:	38800326 	beq	r7,r2,102c88 <OSQPendAbort+0x4c>
  102c7c:	0007883a 	mov	r3,zero
  102c80:	00800044 	movi	r2,1
  102c84:	00001a06 	br	102cf0 <OSQPendAbort+0xb4>
  102c88:	0027303a 	rdctl	r19,status
  102c8c:	00bfff84 	movi	r2,-2
  102c90:	9884703a 	and	r2,r19,r2
  102c94:	1001703a 	wrctl	status,r2
  102c98:	20800283 	ldbu	r2,10(r4)
  102c9c:	10001626 	beq	r2,zero,102cf8 <OSQPendAbort+0xbc>
  102ca0:	28803fcc 	andi	r2,r5,255
  102ca4:	04400044 	movi	r17,1
  102ca8:	14400a1e 	bne	r2,r17,102cd4 <OSQPendAbort+0x98>
  102cac:	0023883a 	mov	r17,zero
  102cb0:	8009883a 	mov	r4,r16
  102cb4:	000b883a 	mov	r5,zero
  102cb8:	01800104 	movi	r6,4
  102cbc:	01c00084 	movi	r7,2
  102cc0:	01006cc0 	call	1006cc <OS_EventTaskRdy>
  102cc4:	80800283 	ldbu	r2,10(r16)
  102cc8:	8c400044 	addi	r17,r17,1
  102ccc:	10000426 	beq	r2,zero,102ce0 <OSQPendAbort+0xa4>
  102cd0:	003ff706 	br	102cb0 <OSQPendAbort+0x74>
  102cd4:	000b883a 	mov	r5,zero
  102cd8:	01800104 	movi	r6,4
  102cdc:	01006cc0 	call	1006cc <OS_EventTaskRdy>
  102ce0:	9801703a 	wrctl	status,r19
  102ce4:	01008ec0 	call	1008ec <OS_Sched>
  102ce8:	88c03fcc 	andi	r3,r17,255
  102cec:	00800384 	movi	r2,14
  102cf0:	90800005 	stb	r2,0(r18)
  102cf4:	00000306 	br	102d04 <OSQPendAbort+0xc8>
  102cf8:	9801703a 	wrctl	status,r19
  102cfc:	30000005 	stb	zero,0(r6)
  102d00:	0007883a 	mov	r3,zero
  102d04:	1805883a 	mov	r2,r3
  102d08:	dfc00417 	ldw	ra,16(sp)
  102d0c:	dcc00317 	ldw	r19,12(sp)
  102d10:	dc800217 	ldw	r18,8(sp)
  102d14:	dc400117 	ldw	r17,4(sp)
  102d18:	dc000017 	ldw	r16,0(sp)
  102d1c:	dec00504 	addi	sp,sp,20
  102d20:	f800283a 	ret

00102d24 <OSQPost>:
  102d24:	defffe04 	addi	sp,sp,-8
  102d28:	dfc00115 	stw	ra,4(sp)
  102d2c:	dc000015 	stw	r16,0(sp)
  102d30:	280f883a 	mov	r7,r5
  102d34:	2000021e 	bne	r4,zero,102d40 <OSQPost+0x1c>
  102d38:	00800104 	movi	r2,4
  102d3c:	00002406 	br	102dd0 <OSQPost+0xac>
  102d40:	20c00003 	ldbu	r3,0(r4)
  102d44:	00800084 	movi	r2,2
  102d48:	18800226 	beq	r3,r2,102d54 <OSQPost+0x30>
  102d4c:	00800044 	movi	r2,1
  102d50:	00001f06 	br	102dd0 <OSQPost+0xac>
  102d54:	0021303a 	rdctl	r16,status
  102d58:	00bfff84 	movi	r2,-2
  102d5c:	8084703a 	and	r2,r16,r2
  102d60:	1001703a 	wrctl	status,r2
  102d64:	20800283 	ldbu	r2,10(r4)
  102d68:	10000626 	beq	r2,zero,102d84 <OSQPost+0x60>
  102d6c:	01800104 	movi	r6,4
  102d70:	000f883a 	mov	r7,zero
  102d74:	01006cc0 	call	1006cc <OS_EventTaskRdy>
  102d78:	8001703a 	wrctl	status,r16
  102d7c:	01008ec0 	call	1008ec <OS_Sched>
  102d80:	00001206 	br	102dcc <OSQPost+0xa8>
  102d84:	21800117 	ldw	r6,4(r4)
  102d88:	3100058b 	ldhu	r4,22(r6)
  102d8c:	3080050b 	ldhu	r2,20(r6)
  102d90:	20800336 	bltu	r4,r2,102da0 <OSQPost+0x7c>
  102d94:	8001703a 	wrctl	status,r16
  102d98:	00800784 	movi	r2,30
  102d9c:	00000c06 	br	102dd0 <OSQPost+0xac>
  102da0:	30800317 	ldw	r2,12(r6)
  102da4:	31400217 	ldw	r5,8(r6)
  102da8:	21000044 	addi	r4,r4,1
  102dac:	10c00104 	addi	r3,r2,4
  102db0:	11c00015 	stw	r7,0(r2)
  102db4:	3100058d 	sth	r4,22(r6)
  102db8:	30c00315 	stw	r3,12(r6)
  102dbc:	1940021e 	bne	r3,r5,102dc8 <OSQPost+0xa4>
  102dc0:	30800117 	ldw	r2,4(r6)
  102dc4:	30800315 	stw	r2,12(r6)
  102dc8:	8001703a 	wrctl	status,r16
  102dcc:	0005883a 	mov	r2,zero
  102dd0:	dfc00117 	ldw	ra,4(sp)
  102dd4:	dc000017 	ldw	r16,0(sp)
  102dd8:	dec00204 	addi	sp,sp,8
  102ddc:	f800283a 	ret

00102de0 <OSQPostFront>:
  102de0:	defffe04 	addi	sp,sp,-8
  102de4:	dfc00115 	stw	ra,4(sp)
  102de8:	dc000015 	stw	r16,0(sp)
  102dec:	280f883a 	mov	r7,r5
  102df0:	2000021e 	bne	r4,zero,102dfc <OSQPostFront+0x1c>
  102df4:	00800104 	movi	r2,4
  102df8:	00002606 	br	102e94 <OSQPostFront+0xb4>
  102dfc:	20c00003 	ldbu	r3,0(r4)
  102e00:	00800084 	movi	r2,2
  102e04:	18800226 	beq	r3,r2,102e10 <OSQPostFront+0x30>
  102e08:	00800044 	movi	r2,1
  102e0c:	00002106 	br	102e94 <OSQPostFront+0xb4>
  102e10:	0021303a 	rdctl	r16,status
  102e14:	00bfff84 	movi	r2,-2
  102e18:	8084703a 	and	r2,r16,r2
  102e1c:	1001703a 	wrctl	status,r2
  102e20:	20800283 	ldbu	r2,10(r4)
  102e24:	10000626 	beq	r2,zero,102e40 <OSQPostFront+0x60>
  102e28:	01800104 	movi	r6,4
  102e2c:	000f883a 	mov	r7,zero
  102e30:	01006cc0 	call	1006cc <OS_EventTaskRdy>
  102e34:	8001703a 	wrctl	status,r16
  102e38:	01008ec0 	call	1008ec <OS_Sched>
  102e3c:	00001406 	br	102e90 <OSQPostFront+0xb0>
  102e40:	21400117 	ldw	r5,4(r4)
  102e44:	28c0058b 	ldhu	r3,22(r5)
  102e48:	2880050b 	ldhu	r2,20(r5)
  102e4c:	18800336 	bltu	r3,r2,102e5c <OSQPostFront+0x7c>
  102e50:	8001703a 	wrctl	status,r16
  102e54:	00800784 	movi	r2,30
  102e58:	00000e06 	br	102e94 <OSQPostFront+0xb4>
  102e5c:	28c00417 	ldw	r3,16(r5)
  102e60:	28800117 	ldw	r2,4(r5)
  102e64:	1880021e 	bne	r3,r2,102e70 <OSQPostFront+0x90>
  102e68:	28800217 	ldw	r2,8(r5)
  102e6c:	28800415 	stw	r2,16(r5)
  102e70:	28800417 	ldw	r2,16(r5)
  102e74:	28c0058b 	ldhu	r3,22(r5)
  102e78:	113fff04 	addi	r4,r2,-4
  102e7c:	18c00044 	addi	r3,r3,1
  102e80:	11ffff15 	stw	r7,-4(r2)
  102e84:	28c0058d 	sth	r3,22(r5)
  102e88:	29000415 	stw	r4,16(r5)
  102e8c:	8001703a 	wrctl	status,r16
  102e90:	0005883a 	mov	r2,zero
  102e94:	dfc00117 	ldw	ra,4(sp)
  102e98:	dc000017 	ldw	r16,0(sp)
  102e9c:	dec00204 	addi	sp,sp,8
  102ea0:	f800283a 	ret

00102ea4 <OSQPostOpt>:
  102ea4:	defffb04 	addi	sp,sp,-20
  102ea8:	dc800215 	stw	r18,8(sp)
  102eac:	dc400115 	stw	r17,4(sp)
  102eb0:	dc000015 	stw	r16,0(sp)
  102eb4:	dfc00415 	stw	ra,16(sp)
  102eb8:	dcc00315 	stw	r19,12(sp)
  102ebc:	2021883a 	mov	r16,r4
  102ec0:	3023883a 	mov	r17,r6
  102ec4:	2825883a 	mov	r18,r5
  102ec8:	2000021e 	bne	r4,zero,102ed4 <OSQPostOpt+0x30>
  102ecc:	00800104 	movi	r2,4
  102ed0:	00003e06 	br	102fcc <OSQPostOpt+0x128>
  102ed4:	21800003 	ldbu	r6,0(r4)
  102ed8:	00800084 	movi	r2,2
  102edc:	30800226 	beq	r6,r2,102ee8 <OSQPostOpt+0x44>
  102ee0:	00800044 	movi	r2,1
  102ee4:	00003906 	br	102fcc <OSQPostOpt+0x128>
  102ee8:	0027303a 	rdctl	r19,status
  102eec:	00bfff84 	movi	r2,-2
  102ef0:	9884703a 	and	r2,r19,r2
  102ef4:	1001703a 	wrctl	status,r2
  102ef8:	20800283 	ldbu	r2,10(r4)
  102efc:	10001326 	beq	r2,zero,102f4c <OSQPostOpt+0xa8>
  102f00:	8880004c 	andi	r2,r17,1
  102f04:	1005003a 	cmpeq	r2,r2,zero
  102f08:	1000081e 	bne	r2,zero,102f2c <OSQPostOpt+0x88>
  102f0c:	8009883a 	mov	r4,r16
  102f10:	900b883a 	mov	r5,r18
  102f14:	01800104 	movi	r6,4
  102f18:	000f883a 	mov	r7,zero
  102f1c:	01006cc0 	call	1006cc <OS_EventTaskRdy>
  102f20:	80800283 	ldbu	r2,10(r16)
  102f24:	10000426 	beq	r2,zero,102f38 <OSQPostOpt+0x94>
  102f28:	003ff806 	br	102f0c <OSQPostOpt+0x68>
  102f2c:	01800104 	movi	r6,4
  102f30:	000f883a 	mov	r7,zero
  102f34:	01006cc0 	call	1006cc <OS_EventTaskRdy>
  102f38:	9801703a 	wrctl	status,r19
  102f3c:	8880010c 	andi	r2,r17,4
  102f40:	1000211e 	bne	r2,zero,102fc8 <OSQPostOpt+0x124>
  102f44:	01008ec0 	call	1008ec <OS_Sched>
  102f48:	00001f06 	br	102fc8 <OSQPostOpt+0x124>
  102f4c:	21400117 	ldw	r5,4(r4)
  102f50:	28c0058b 	ldhu	r3,22(r5)
  102f54:	2880050b 	ldhu	r2,20(r5)
  102f58:	18800336 	bltu	r3,r2,102f68 <OSQPostOpt+0xc4>
  102f5c:	9801703a 	wrctl	status,r19
  102f60:	00800784 	movi	r2,30
  102f64:	00001906 	br	102fcc <OSQPostOpt+0x128>
  102f68:	3444703a 	and	r2,r6,r17
  102f6c:	10000a26 	beq	r2,zero,102f98 <OSQPostOpt+0xf4>
  102f70:	28c00417 	ldw	r3,16(r5)
  102f74:	28800117 	ldw	r2,4(r5)
  102f78:	1880021e 	bne	r3,r2,102f84 <OSQPostOpt+0xe0>
  102f7c:	28800217 	ldw	r2,8(r5)
  102f80:	28800415 	stw	r2,16(r5)
  102f84:	28800417 	ldw	r2,16(r5)
  102f88:	10ffff04 	addi	r3,r2,-4
  102f8c:	14bfff15 	stw	r18,-4(r2)
  102f90:	28c00415 	stw	r3,16(r5)
  102f94:	00000806 	br	102fb8 <OSQPostOpt+0x114>
  102f98:	28800317 	ldw	r2,12(r5)
  102f9c:	29000217 	ldw	r4,8(r5)
  102fa0:	10c00104 	addi	r3,r2,4
  102fa4:	14800015 	stw	r18,0(r2)
  102fa8:	28c00315 	stw	r3,12(r5)
  102fac:	1900021e 	bne	r3,r4,102fb8 <OSQPostOpt+0x114>
  102fb0:	28800117 	ldw	r2,4(r5)
  102fb4:	28800315 	stw	r2,12(r5)
  102fb8:	2880058b 	ldhu	r2,22(r5)
  102fbc:	10800044 	addi	r2,r2,1
  102fc0:	2880058d 	sth	r2,22(r5)
  102fc4:	9801703a 	wrctl	status,r19
  102fc8:	0005883a 	mov	r2,zero
  102fcc:	dfc00417 	ldw	ra,16(sp)
  102fd0:	dcc00317 	ldw	r19,12(sp)
  102fd4:	dc800217 	ldw	r18,8(sp)
  102fd8:	dc400117 	ldw	r17,4(sp)
  102fdc:	dc000017 	ldw	r16,0(sp)
  102fe0:	dec00504 	addi	sp,sp,20
  102fe4:	f800283a 	ret

00102fe8 <OSSemSet>:
  102fe8:	30001726 	beq	r6,zero,103048 <OSSemSet+0x60>
  102fec:	2000021e 	bne	r4,zero,102ff8 <OSSemSet+0x10>
  102ff0:	00800104 	movi	r2,4
  102ff4:	00000406 	br	103008 <OSSemSet+0x20>
  102ff8:	20c00003 	ldbu	r3,0(r4)
  102ffc:	008000c4 	movi	r2,3
  103000:	18800326 	beq	r3,r2,103010 <OSSemSet+0x28>
  103004:	00800044 	movi	r2,1
  103008:	30800005 	stb	r2,0(r6)
  10300c:	f800283a 	ret
  103010:	0007303a 	rdctl	r3,status
  103014:	00bfff84 	movi	r2,-2
  103018:	1884703a 	and	r2,r3,r2
  10301c:	1001703a 	wrctl	status,r2
  103020:	30000005 	stb	zero,0(r6)
  103024:	2080020b 	ldhu	r2,8(r4)
  103028:	1000021e 	bne	r2,zero,103034 <OSSemSet+0x4c>
  10302c:	20800283 	ldbu	r2,10(r4)
  103030:	1000021e 	bne	r2,zero,10303c <OSSemSet+0x54>
  103034:	2140020d 	sth	r5,8(r4)
  103038:	00000206 	br	103044 <OSSemSet+0x5c>
  10303c:	00801244 	movi	r2,73
  103040:	30800005 	stb	r2,0(r6)
  103044:	1801703a 	wrctl	status,r3
  103048:	f800283a 	ret

0010304c <OSSemAccept>:
  10304c:	20000e26 	beq	r4,zero,103088 <OSSemAccept+0x3c>
  103050:	20c00003 	ldbu	r3,0(r4)
  103054:	008000c4 	movi	r2,3
  103058:	18800b1e 	bne	r3,r2,103088 <OSSemAccept+0x3c>
  10305c:	000b303a 	rdctl	r5,status
  103060:	00bfff84 	movi	r2,-2
  103064:	2884703a 	and	r2,r5,r2
  103068:	1001703a 	wrctl	status,r2
  10306c:	2080020b 	ldhu	r2,8(r4)
  103070:	10ffffc4 	addi	r3,r2,-1
  103074:	10bfffcc 	andi	r2,r2,65535
  103078:	10000126 	beq	r2,zero,103080 <OSSemAccept+0x34>
  10307c:	20c0020d 	sth	r3,8(r4)
  103080:	2801703a 	wrctl	status,r5
  103084:	f800283a 	ret
  103088:	0005883a 	mov	r2,zero
  10308c:	f800283a 	ret

00103090 <OSSemCreate>:
  103090:	defffe04 	addi	sp,sp,-8
  103094:	dc000015 	stw	r16,0(sp)
  103098:	dfc00115 	stw	ra,4(sp)
  10309c:	00800474 	movhi	r2,17
  1030a0:	10adff04 	addi	r2,r2,-18436
  1030a4:	10800003 	ldbu	r2,0(r2)
  1030a8:	0021883a 	mov	r16,zero
  1030ac:	1000161e 	bne	r2,zero,103108 <OSSemCreate+0x78>
  1030b0:	0007303a 	rdctl	r3,status
  1030b4:	00bfff84 	movi	r2,-2
  1030b8:	1884703a 	and	r2,r3,r2
  1030bc:	1001703a 	wrctl	status,r2
  1030c0:	01400474 	movhi	r5,17
  1030c4:	296dfe04 	addi	r5,r5,-18440
  1030c8:	2c000017 	ldw	r16,0(r5)
  1030cc:	80000d26 	beq	r16,zero,103104 <OSSemCreate+0x74>
  1030d0:	80800117 	ldw	r2,4(r16)
  1030d4:	28800015 	stw	r2,0(r5)
  1030d8:	1801703a 	wrctl	status,r3
  1030dc:	008000c4 	movi	r2,3
  1030e0:	80800005 	stb	r2,0(r16)
  1030e4:	00800fc4 	movi	r2,63
  1030e8:	8100020d 	sth	r4,8(r16)
  1030ec:	80800385 	stb	r2,14(r16)
  1030f0:	80000115 	stw	zero,4(r16)
  1030f4:	800003c5 	stb	zero,15(r16)
  1030f8:	8009883a 	mov	r4,r16
  1030fc:	01007c00 	call	1007c0 <OS_EventWaitListInit>
  103100:	00000106 	br	103108 <OSSemCreate+0x78>
  103104:	1801703a 	wrctl	status,r3
  103108:	8005883a 	mov	r2,r16
  10310c:	dfc00117 	ldw	ra,4(sp)
  103110:	dc000017 	ldw	r16,0(sp)
  103114:	dec00204 	addi	sp,sp,8
  103118:	f800283a 	ret

0010311c <OSSemDel>:
  10311c:	defffb04 	addi	sp,sp,-20
  103120:	dc400115 	stw	r17,4(sp)
  103124:	dc000015 	stw	r16,0(sp)
  103128:	dfc00415 	stw	ra,16(sp)
  10312c:	dcc00315 	stw	r19,12(sp)
  103130:	dc800215 	stw	r18,8(sp)
  103134:	3023883a 	mov	r17,r6
  103138:	2021883a 	mov	r16,r4
  10313c:	30004426 	beq	r6,zero,103250 <OSSemDel+0x134>
  103140:	2000021e 	bne	r4,zero,10314c <OSSemDel+0x30>
  103144:	00800104 	movi	r2,4
  103148:	00004006 	br	10324c <OSSemDel+0x130>
  10314c:	20c00003 	ldbu	r3,0(r4)
  103150:	008000c4 	movi	r2,3
  103154:	18800226 	beq	r3,r2,103160 <OSSemDel+0x44>
  103158:	00800044 	movi	r2,1
  10315c:	00003b06 	br	10324c <OSSemDel+0x130>
  103160:	00800474 	movhi	r2,17
  103164:	10adff04 	addi	r2,r2,-18436
  103168:	10800003 	ldbu	r2,0(r2)
  10316c:	10000226 	beq	r2,zero,103178 <OSSemDel+0x5c>
  103170:	008003c4 	movi	r2,15
  103174:	00003506 	br	10324c <OSSemDel+0x130>
  103178:	0025303a 	rdctl	r18,status
  10317c:	00bfff84 	movi	r2,-2
  103180:	9084703a 	and	r2,r18,r2
  103184:	1001703a 	wrctl	status,r2
  103188:	20800283 	ldbu	r2,10(r4)
  10318c:	29403fcc 	andi	r5,r5,255
  103190:	1004c03a 	cmpne	r2,r2,zero
  103194:	1027883a 	mov	r19,r2
  103198:	28000326 	beq	r5,zero,1031a8 <OSSemDel+0x8c>
  10319c:	00800044 	movi	r2,1
  1031a0:	2880281e 	bne	r5,r2,103244 <OSSemDel+0x128>
  1031a4:	00001106 	br	1031ec <OSSemDel+0xd0>
  1031a8:	10000c1e 	bne	r2,zero,1031dc <OSSemDel+0xc0>
  1031ac:	00800fc4 	movi	r2,63
  1031b0:	20800385 	stb	r2,14(r4)
  1031b4:	200003c5 	stb	zero,15(r4)
  1031b8:	20000005 	stb	zero,0(r4)
  1031bc:	00800474 	movhi	r2,17
  1031c0:	10adfe04 	addi	r2,r2,-18440
  1031c4:	10c00017 	ldw	r3,0(r2)
  1031c8:	2000020d 	sth	zero,8(r4)
  1031cc:	11000015 	stw	r4,0(r2)
  1031d0:	20c00115 	stw	r3,4(r4)
  1031d4:	9001703a 	wrctl	status,r18
  1031d8:	00001706 	br	103238 <OSSemDel+0x11c>
  1031dc:	9001703a 	wrctl	status,r18
  1031e0:	00801244 	movi	r2,73
  1031e4:	00001906 	br	10324c <OSSemDel+0x130>
  1031e8:	01006cc0 	call	1006cc <OS_EventTaskRdy>
  1031ec:	80800283 	ldbu	r2,10(r16)
  1031f0:	8009883a 	mov	r4,r16
  1031f4:	000b883a 	mov	r5,zero
  1031f8:	01800044 	movi	r6,1
  1031fc:	000f883a 	mov	r7,zero
  103200:	103ff91e 	bne	r2,zero,1031e8 <OSSemDel+0xcc>
  103204:	00800fc4 	movi	r2,63
  103208:	80800385 	stb	r2,14(r16)
  10320c:	800003c5 	stb	zero,15(r16)
  103210:	80000005 	stb	zero,0(r16)
  103214:	00800474 	movhi	r2,17
  103218:	10adfe04 	addi	r2,r2,-18440
  10321c:	10c00017 	ldw	r3,0(r2)
  103220:	8000020d 	sth	zero,8(r16)
  103224:	14000015 	stw	r16,0(r2)
  103228:	80c00115 	stw	r3,4(r16)
  10322c:	9001703a 	wrctl	status,r18
  103230:	98000126 	beq	r19,zero,103238 <OSSemDel+0x11c>
  103234:	01008ec0 	call	1008ec <OS_Sched>
  103238:	0021883a 	mov	r16,zero
  10323c:	88000005 	stb	zero,0(r17)
  103240:	00000306 	br	103250 <OSSemDel+0x134>
  103244:	9001703a 	wrctl	status,r18
  103248:	008001c4 	movi	r2,7
  10324c:	88800005 	stb	r2,0(r17)
  103250:	8005883a 	mov	r2,r16
  103254:	dfc00417 	ldw	ra,16(sp)
  103258:	dcc00317 	ldw	r19,12(sp)
  10325c:	dc800217 	ldw	r18,8(sp)
  103260:	dc400117 	ldw	r17,4(sp)
  103264:	dc000017 	ldw	r16,0(sp)
  103268:	dec00504 	addi	sp,sp,20
  10326c:	f800283a 	ret

00103270 <OSSemPend>:
  103270:	defffa04 	addi	sp,sp,-24
  103274:	dc800215 	stw	r18,8(sp)
  103278:	dc400115 	stw	r17,4(sp)
  10327c:	dfc00515 	stw	ra,20(sp)
  103280:	dd000415 	stw	r20,16(sp)
  103284:	dcc00315 	stw	r19,12(sp)
  103288:	dc000015 	stw	r16,0(sp)
  10328c:	3023883a 	mov	r17,r6
  103290:	2025883a 	mov	r18,r4
  103294:	30004826 	beq	r6,zero,1033b8 <OSSemPend+0x148>
  103298:	2000021e 	bne	r4,zero,1032a4 <OSSemPend+0x34>
  10329c:	00800104 	movi	r2,4
  1032a0:	00000406 	br	1032b4 <OSSemPend+0x44>
  1032a4:	20c00003 	ldbu	r3,0(r4)
  1032a8:	008000c4 	movi	r2,3
  1032ac:	18800326 	beq	r3,r2,1032bc <OSSemPend+0x4c>
  1032b0:	00800044 	movi	r2,1
  1032b4:	88800005 	stb	r2,0(r17)
  1032b8:	00003f06 	br	1033b8 <OSSemPend+0x148>
  1032bc:	00800474 	movhi	r2,17
  1032c0:	10adff04 	addi	r2,r2,-18436
  1032c4:	10800003 	ldbu	r2,0(r2)
  1032c8:	10000226 	beq	r2,zero,1032d4 <OSSemPend+0x64>
  1032cc:	00800084 	movi	r2,2
  1032d0:	003ff806 	br	1032b4 <OSSemPend+0x44>
  1032d4:	00800474 	movhi	r2,17
  1032d8:	10adee04 	addi	r2,r2,-18504
  1032dc:	10800003 	ldbu	r2,0(r2)
  1032e0:	10000226 	beq	r2,zero,1032ec <OSSemPend+0x7c>
  1032e4:	00800344 	movi	r2,13
  1032e8:	003ff206 	br	1032b4 <OSSemPend+0x44>
  1032ec:	0027303a 	rdctl	r19,status
  1032f0:	053fff84 	movi	r20,-2
  1032f4:	9d04703a 	and	r2,r19,r20
  1032f8:	1001703a 	wrctl	status,r2
  1032fc:	2080020b 	ldhu	r2,8(r4)
  103300:	10000526 	beq	r2,zero,103318 <OSSemPend+0xa8>
  103304:	10bfffc4 	addi	r2,r2,-1
  103308:	2080020d 	sth	r2,8(r4)
  10330c:	9801703a 	wrctl	status,r19
  103310:	30000005 	stb	zero,0(r6)
  103314:	00002806 	br	1033b8 <OSSemPend+0x148>
  103318:	04000474 	movhi	r16,17
  10331c:	842e0004 	addi	r16,r16,-18432
  103320:	80c00017 	ldw	r3,0(r16)
  103324:	18800c03 	ldbu	r2,48(r3)
  103328:	10800054 	ori	r2,r2,1
  10332c:	18800c05 	stb	r2,48(r3)
  103330:	80800017 	ldw	r2,0(r16)
  103334:	10000c45 	stb	zero,49(r2)
  103338:	80800017 	ldw	r2,0(r16)
  10333c:	11400b8d 	sth	r5,46(r2)
  103340:	01005000 	call	100500 <OS_EventTaskWait>
  103344:	9801703a 	wrctl	status,r19
  103348:	01008ec0 	call	1008ec <OS_Sched>
  10334c:	0027303a 	rdctl	r19,status
  103350:	9d04703a 	and	r2,r19,r20
  103354:	1001703a 	wrctl	status,r2
  103358:	81000017 	ldw	r4,0(r16)
  10335c:	20c00c43 	ldbu	r3,49(r4)
  103360:	18000326 	beq	r3,zero,103370 <OSSemPend+0x100>
  103364:	00800084 	movi	r2,2
  103368:	1880051e 	bne	r3,r2,103380 <OSSemPend+0x110>
  10336c:	00000206 	br	103378 <OSSemPend+0x108>
  103370:	88000005 	stb	zero,0(r17)
  103374:	00000606 	br	103390 <OSSemPend+0x120>
  103378:	00800384 	movi	r2,14
  10337c:	00000306 	br	10338c <OSSemPend+0x11c>
  103380:	900b883a 	mov	r5,r18
  103384:	01006240 	call	100624 <OS_EventTaskRemove>
  103388:	00800284 	movi	r2,10
  10338c:	88800005 	stb	r2,0(r17)
  103390:	00c00474 	movhi	r3,17
  103394:	18ee0004 	addi	r3,r3,-18432
  103398:	18800017 	ldw	r2,0(r3)
  10339c:	10000c05 	stb	zero,48(r2)
  1033a0:	18800017 	ldw	r2,0(r3)
  1033a4:	10000c45 	stb	zero,49(r2)
  1033a8:	18800017 	ldw	r2,0(r3)
  1033ac:	10000815 	stw	zero,32(r2)
  1033b0:	10000715 	stw	zero,28(r2)
  1033b4:	9801703a 	wrctl	status,r19
  1033b8:	dfc00517 	ldw	ra,20(sp)
  1033bc:	dd000417 	ldw	r20,16(sp)
  1033c0:	dcc00317 	ldw	r19,12(sp)
  1033c4:	dc800217 	ldw	r18,8(sp)
  1033c8:	dc400117 	ldw	r17,4(sp)
  1033cc:	dc000017 	ldw	r16,0(sp)
  1033d0:	dec00604 	addi	sp,sp,24
  1033d4:	f800283a 	ret

001033d8 <OSSemPendAbort>:
  1033d8:	defffb04 	addi	sp,sp,-20
  1033dc:	dc800215 	stw	r18,8(sp)
  1033e0:	dc400115 	stw	r17,4(sp)
  1033e4:	dfc00415 	stw	ra,16(sp)
  1033e8:	dcc00315 	stw	r19,12(sp)
  1033ec:	dc000015 	stw	r16,0(sp)
  1033f0:	3025883a 	mov	r18,r6
  1033f4:	2023883a 	mov	r17,r4
  1033f8:	30002926 	beq	r6,zero,1034a0 <OSSemPendAbort+0xc8>
  1033fc:	2000031e 	bne	r4,zero,10340c <OSSemPendAbort+0x34>
  103400:	0007883a 	mov	r3,zero
  103404:	00800104 	movi	r2,4
  103408:	00002106 	br	103490 <OSSemPendAbort+0xb8>
  10340c:	20c00003 	ldbu	r3,0(r4)
  103410:	008000c4 	movi	r2,3
  103414:	18800326 	beq	r3,r2,103424 <OSSemPendAbort+0x4c>
  103418:	0007883a 	mov	r3,zero
  10341c:	00800044 	movi	r2,1
  103420:	00001b06 	br	103490 <OSSemPendAbort+0xb8>
  103424:	0027303a 	rdctl	r19,status
  103428:	00bfff84 	movi	r2,-2
  10342c:	9884703a 	and	r2,r19,r2
  103430:	1001703a 	wrctl	status,r2
  103434:	20800283 	ldbu	r2,10(r4)
  103438:	10001726 	beq	r2,zero,103498 <OSSemPendAbort+0xc0>
  10343c:	28803fcc 	andi	r2,r5,255
  103440:	04000044 	movi	r16,1
  103444:	14000a1e 	bne	r2,r16,103470 <OSSemPendAbort+0x98>
  103448:	0021883a 	mov	r16,zero
  10344c:	8809883a 	mov	r4,r17
  103450:	000b883a 	mov	r5,zero
  103454:	01800044 	movi	r6,1
  103458:	01c00084 	movi	r7,2
  10345c:	01006cc0 	call	1006cc <OS_EventTaskRdy>
  103460:	88800283 	ldbu	r2,10(r17)
  103464:	84000044 	addi	r16,r16,1
  103468:	10000526 	beq	r2,zero,103480 <OSSemPendAbort+0xa8>
  10346c:	003ff706 	br	10344c <OSSemPendAbort+0x74>
  103470:	000b883a 	mov	r5,zero
  103474:	800d883a 	mov	r6,r16
  103478:	01c00084 	movi	r7,2
  10347c:	01006cc0 	call	1006cc <OS_EventTaskRdy>
  103480:	9801703a 	wrctl	status,r19
  103484:	01008ec0 	call	1008ec <OS_Sched>
  103488:	80c03fcc 	andi	r3,r16,255
  10348c:	00800384 	movi	r2,14
  103490:	90800005 	stb	r2,0(r18)
  103494:	00000306 	br	1034a4 <OSSemPendAbort+0xcc>
  103498:	9801703a 	wrctl	status,r19
  10349c:	30000005 	stb	zero,0(r6)
  1034a0:	0007883a 	mov	r3,zero
  1034a4:	1805883a 	mov	r2,r3
  1034a8:	dfc00417 	ldw	ra,16(sp)
  1034ac:	dcc00317 	ldw	r19,12(sp)
  1034b0:	dc800217 	ldw	r18,8(sp)
  1034b4:	dc400117 	ldw	r17,4(sp)
  1034b8:	dc000017 	ldw	r16,0(sp)
  1034bc:	dec00504 	addi	sp,sp,20
  1034c0:	f800283a 	ret

001034c4 <OSSemPost>:
  1034c4:	defffe04 	addi	sp,sp,-8
  1034c8:	dfc00115 	stw	ra,4(sp)
  1034cc:	dc000015 	stw	r16,0(sp)
  1034d0:	2011883a 	mov	r8,r4
  1034d4:	01400104 	movi	r5,4
  1034d8:	20001c26 	beq	r4,zero,10354c <OSSemPost+0x88>
  1034dc:	20c00003 	ldbu	r3,0(r4)
  1034e0:	008000c4 	movi	r2,3
  1034e4:	01400044 	movi	r5,1
  1034e8:	1880181e 	bne	r3,r2,10354c <OSSemPost+0x88>
  1034ec:	0021303a 	rdctl	r16,status
  1034f0:	00bfff84 	movi	r2,-2
  1034f4:	8084703a 	and	r2,r16,r2
  1034f8:	1001703a 	wrctl	status,r2
  1034fc:	20800283 	ldbu	r2,10(r4)
  103500:	000b883a 	mov	r5,zero
  103504:	01800044 	movi	r6,1
  103508:	000f883a 	mov	r7,zero
  10350c:	10000426 	beq	r2,zero,103520 <OSSemPost+0x5c>
  103510:	01006cc0 	call	1006cc <OS_EventTaskRdy>
  103514:	8001703a 	wrctl	status,r16
  103518:	01008ec0 	call	1008ec <OS_Sched>
  10351c:	00000706 	br	10353c <OSSemPost+0x78>
  103520:	2080020b 	ldhu	r2,8(r4)
  103524:	00ffffd4 	movui	r3,65535
  103528:	11000044 	addi	r4,r2,1
  10352c:	10bfffcc 	andi	r2,r2,65535
  103530:	10c00426 	beq	r2,r3,103544 <OSSemPost+0x80>
  103534:	4100020d 	sth	r4,8(r8)
  103538:	8001703a 	wrctl	status,r16
  10353c:	000b883a 	mov	r5,zero
  103540:	00000206 	br	10354c <OSSemPost+0x88>
  103544:	8001703a 	wrctl	status,r16
  103548:	01400c84 	movi	r5,50
  10354c:	2805883a 	mov	r2,r5
  103550:	dfc00117 	ldw	ra,4(sp)
  103554:	dc000017 	ldw	r16,0(sp)
  103558:	dec00204 	addi	sp,sp,8
  10355c:	f800283a 	ret

00103560 <OSSemQuery>:
  103560:	01800104 	movi	r6,4
  103564:	20001626 	beq	r4,zero,1035c0 <OSSemQuery+0x60>
  103568:	01800244 	movi	r6,9
  10356c:	28001426 	beq	r5,zero,1035c0 <OSSemQuery+0x60>
  103570:	20c00003 	ldbu	r3,0(r4)
  103574:	008000c4 	movi	r2,3
  103578:	01800044 	movi	r6,1
  10357c:	1880101e 	bne	r3,r2,1035c0 <OSSemQuery+0x60>
  103580:	0007303a 	rdctl	r3,status
  103584:	00bfff84 	movi	r2,-2
  103588:	1884703a 	and	r2,r3,r2
  10358c:	1001703a 	wrctl	status,r2
  103590:	20800283 	ldbu	r2,10(r4)
  103594:	28800145 	stb	r2,5(r5)
  103598:	208002c3 	ldbu	r2,11(r4)
  10359c:	28800085 	stb	r2,2(r5)
  1035a0:	20800303 	ldbu	r2,12(r4)
  1035a4:	288000c5 	stb	r2,3(r5)
  1035a8:	20800343 	ldbu	r2,13(r4)
  1035ac:	28800105 	stb	r2,4(r5)
  1035b0:	2080020b 	ldhu	r2,8(r4)
  1035b4:	2880000d 	sth	r2,0(r5)
  1035b8:	1801703a 	wrctl	status,r3
  1035bc:	000d883a 	mov	r6,zero
  1035c0:	3005883a 	mov	r2,r6
  1035c4:	f800283a 	ret

001035c8 <OS_TaskStkClr>:
  1035c8:	31bfffcc 	andi	r6,r6,65535
  1035cc:	3080004c 	andi	r2,r6,1
  1035d0:	1005003a 	cmpeq	r2,r2,zero
  1035d4:	1000071e 	bne	r2,zero,1035f4 <OS_TaskStkClr+0x2c>
  1035d8:	3080008c 	andi	r2,r6,2
  1035dc:	1000041e 	bne	r2,zero,1035f0 <OS_TaskStkClr+0x28>
  1035e0:	f800283a 	ret
  1035e4:	20000015 	stw	zero,0(r4)
  1035e8:	297fffc4 	addi	r5,r5,-1
  1035ec:	21000104 	addi	r4,r4,4
  1035f0:	283ffc1e 	bne	r5,zero,1035e4 <OS_TaskStkClr+0x1c>
  1035f4:	f800283a 	ret

001035f8 <OSTaskQuery>:
  1035f8:	defffe04 	addi	sp,sp,-8
  1035fc:	20c03fcc 	andi	r3,r4,255
  103600:	00800504 	movi	r2,20
  103604:	dfc00115 	stw	ra,4(sp)
  103608:	dc000015 	stw	r16,0(sp)
  10360c:	280d883a 	mov	r6,r5
  103610:	10c0042e 	bgeu	r2,r3,103624 <OSTaskQuery+0x2c>
  103614:	00803fc4 	movi	r2,255
  103618:	18800226 	beq	r3,r2,103624 <OSTaskQuery+0x2c>
  10361c:	00800a84 	movi	r2,42
  103620:	00002306 	br	1036b0 <OSTaskQuery+0xb8>
  103624:	3000021e 	bne	r6,zero,103630 <OSTaskQuery+0x38>
  103628:	00800244 	movi	r2,9
  10362c:	00002006 	br	1036b0 <OSTaskQuery+0xb8>
  103630:	0021303a 	rdctl	r16,status
  103634:	00bfff84 	movi	r2,-2
  103638:	8084703a 	and	r2,r16,r2
  10363c:	1001703a 	wrctl	status,r2
  103640:	20c03fcc 	andi	r3,r4,255
  103644:	00803fc4 	movi	r2,255
  103648:	1880041e 	bne	r3,r2,10365c <OSTaskQuery+0x64>
  10364c:	00800474 	movhi	r2,17
  103650:	10ae0004 	addi	r2,r2,-18432
  103654:	10800017 	ldw	r2,0(r2)
  103658:	11000c83 	ldbu	r4,50(r2)
  10365c:	20803fcc 	andi	r2,r4,255
  103660:	1085883a 	add	r2,r2,r2
  103664:	1085883a 	add	r2,r2,r2
  103668:	00c00474 	movhi	r3,17
  10366c:	18fd5704 	addi	r3,r3,-2724
  103670:	10c5883a 	add	r2,r2,r3
  103674:	11400017 	ldw	r5,0(r2)
  103678:	2800031e 	bne	r5,zero,103688 <OSTaskQuery+0x90>
  10367c:	8001703a 	wrctl	status,r16
  103680:	00800a44 	movi	r2,41
  103684:	00000a06 	br	1036b0 <OSTaskQuery+0xb8>
  103688:	00800044 	movi	r2,1
  10368c:	2880031e 	bne	r5,r2,10369c <OSTaskQuery+0xa4>
  103690:	8001703a 	wrctl	status,r16
  103694:	008010c4 	movi	r2,67
  103698:	00000506 	br	1036b0 <OSTaskQuery+0xb8>
  10369c:	3009883a 	mov	r4,r6
  1036a0:	01801b04 	movi	r6,108
  1036a4:	01007f80 	call	1007f8 <OS_MemCopy>
  1036a8:	8001703a 	wrctl	status,r16
  1036ac:	0005883a 	mov	r2,zero
  1036b0:	dfc00117 	ldw	ra,4(sp)
  1036b4:	dc000017 	ldw	r16,0(sp)
  1036b8:	dec00204 	addi	sp,sp,8
  1036bc:	f800283a 	ret

001036c0 <OSTaskChangePrio>:
  1036c0:	defffa04 	addi	sp,sp,-24
  1036c4:	20c03fcc 	andi	r3,r4,255
  1036c8:	018004c4 	movi	r6,19
  1036cc:	dd000415 	stw	r20,16(sp)
  1036d0:	dfc00515 	stw	ra,20(sp)
  1036d4:	dcc00315 	stw	r19,12(sp)
  1036d8:	dc800215 	stw	r18,8(sp)
  1036dc:	dc400115 	stw	r17,4(sp)
  1036e0:	dc000015 	stw	r16,0(sp)
  1036e4:	2829883a 	mov	r20,r5
  1036e8:	30c0022e 	bgeu	r6,r3,1036f4 <OSTaskChangePrio+0x34>
  1036ec:	00803fc4 	movi	r2,255
  1036f0:	1880911e 	bne	r3,r2,103938 <OSTaskChangePrio+0x278>
  1036f4:	a1c03fcc 	andi	r7,r20,255
  1036f8:	31c08f36 	bltu	r6,r7,103938 <OSTaskChangePrio+0x278>
  1036fc:	0023303a 	rdctl	r17,status
  103700:	00bfff84 	movi	r2,-2
  103704:	8884703a 	and	r2,r17,r2
  103708:	1001703a 	wrctl	status,r2
  10370c:	39c5883a 	add	r2,r7,r7
  103710:	1085883a 	add	r2,r2,r2
  103714:	01800474 	movhi	r6,17
  103718:	31bd5704 	addi	r6,r6,-2724
  10371c:	1191883a 	add	r8,r2,r6
  103720:	40800017 	ldw	r2,0(r8)
  103724:	10000326 	beq	r2,zero,103734 <OSTaskChangePrio+0x74>
  103728:	8801703a 	wrctl	status,r17
  10372c:	00800a04 	movi	r2,40
  103730:	00008206 	br	10393c <OSTaskChangePrio+0x27c>
  103734:	00803fc4 	movi	r2,255
  103738:	1880041e 	bne	r3,r2,10374c <OSTaskChangePrio+0x8c>
  10373c:	00800474 	movhi	r2,17
  103740:	10ae0004 	addi	r2,r2,-18432
  103744:	10800017 	ldw	r2,0(r2)
  103748:	11000c83 	ldbu	r4,50(r2)
  10374c:	20803fcc 	andi	r2,r4,255
  103750:	1085883a 	add	r2,r2,r2
  103754:	1085883a 	add	r2,r2,r2
  103758:	1185883a 	add	r2,r2,r6
  10375c:	11800017 	ldw	r6,0(r2)
  103760:	3000031e 	bne	r6,zero,103770 <OSTaskChangePrio+0xb0>
  103764:	8801703a 	wrctl	status,r17
  103768:	00800a44 	movi	r2,41
  10376c:	00007306 	br	10393c <OSTaskChangePrio+0x27c>
  103770:	00c00044 	movi	r3,1
  103774:	30c0031e 	bne	r6,r3,103784 <OSTaskChangePrio+0xc4>
  103778:	8801703a 	wrctl	status,r17
  10377c:	008010c4 	movi	r2,67
  103780:	00006e06 	br	10393c <OSTaskChangePrio+0x27c>
  103784:	10000015 	stw	zero,0(r2)
  103788:	41800015 	stw	r6,0(r8)
  10378c:	33c00d03 	ldbu	r15,52(r6)
  103790:	3826d0fa 	srli	r19,r7,3
  103794:	04000474 	movhi	r16,17
  103798:	842dfd44 	addi	r16,r16,-18443
  10379c:	7c13883a 	add	r9,r15,r16
  1037a0:	2c8001cc 	andi	r18,r5,7
  1037a4:	31c00d43 	ldbu	r7,53(r6)
  1037a8:	49000003 	ldbu	r4,0(r9)
  1037ac:	90803fcc 	andi	r2,r18,255
  1037b0:	9ac03fcc 	andi	r11,r19,255
  1037b4:	1898983a 	sll	r12,r3,r2
  1037b8:	1ad4983a 	sll	r10,r3,r11
  1037bc:	21c4703a 	and	r2,r4,r7
  1037c0:	10803fcc 	andi	r2,r2,255
  1037c4:	501d883a 	mov	r14,r10
  1037c8:	601b883a 	mov	r13,r12
  1037cc:	32000d83 	ldbu	r8,54(r6)
  1037d0:	10001626 	beq	r2,zero,10382c <OSTaskChangePrio+0x16c>
  1037d4:	01c4303a 	nor	r2,zero,r7
  1037d8:	1104703a 	and	r2,r2,r4
  1037dc:	10c03fcc 	andi	r3,r2,255
  1037e0:	18c0201c 	xori	r3,r3,128
  1037e4:	18ffe004 	addi	r3,r3,-128
  1037e8:	48800005 	stb	r2,0(r9)
  1037ec:	1800061e 	bne	r3,zero,103808 <OSTaskChangePrio+0x148>
  1037f0:	01000474 	movhi	r4,17
  1037f4:	212dfd04 	addi	r4,r4,-18444
  1037f8:	20c00003 	ldbu	r3,0(r4)
  1037fc:	0204303a 	nor	r2,zero,r8
  103800:	10c4703a 	and	r2,r2,r3
  103804:	20800005 	stb	r2,0(r4)
  103808:	5c0b883a 	add	r5,r11,r16
  10380c:	01000474 	movhi	r4,17
  103810:	212dfd04 	addi	r4,r4,-18444
  103814:	20800003 	ldbu	r2,0(r4)
  103818:	28c00003 	ldbu	r3,0(r5)
  10381c:	5084b03a 	or	r2,r10,r2
  103820:	60c6b03a 	or	r3,r12,r3
  103824:	20800005 	stb	r2,0(r4)
  103828:	28c00005 	stb	r3,0(r5)
  10382c:	31400717 	ldw	r5,28(r6)
  103830:	28001626 	beq	r5,zero,10388c <OSTaskChangePrio+0x1cc>
  103834:	7947883a 	add	r3,r15,r5
  103838:	18c00204 	addi	r3,r3,8
  10383c:	190000c3 	ldbu	r4,3(r3)
  103840:	01c4303a 	nor	r2,zero,r7
  103844:	1104703a 	and	r2,r2,r4
  103848:	11003fcc 	andi	r4,r2,255
  10384c:	2100201c 	xori	r4,r4,128
  103850:	213fe004 	addi	r4,r4,-128
  103854:	188000c5 	stb	r2,3(r3)
  103858:	2000041e 	bne	r4,zero,10386c <OSTaskChangePrio+0x1ac>
  10385c:	28c00283 	ldbu	r3,10(r5)
  103860:	0204303a 	nor	r2,zero,r8
  103864:	10c4703a 	and	r2,r2,r3
  103868:	28800285 	stb	r2,10(r5)
  10386c:	5945883a 	add	r2,r11,r5
  103870:	10800204 	addi	r2,r2,8
  103874:	29000283 	ldbu	r4,10(r5)
  103878:	10c000c3 	ldbu	r3,3(r2)
  10387c:	2388b03a 	or	r4,r4,r14
  103880:	1b46b03a 	or	r3,r3,r13
  103884:	10c000c5 	stb	r3,3(r2)
  103888:	29000285 	stb	r4,10(r5)
  10388c:	31400817 	ldw	r5,32(r6)
  103890:	28001b26 	beq	r5,zero,103900 <OSTaskChangePrio+0x240>
  103894:	29000017 	ldw	r4,0(r5)
  103898:	01d4303a 	nor	r10,zero,r7
  10389c:	0212303a 	nor	r9,zero,r8
  1038a0:	00001106 	br	1038e8 <OSTaskChangePrio+0x228>
  1038a4:	388000c3 	ldbu	r2,3(r7)
  1038a8:	5084703a 	and	r2,r10,r2
  1038ac:	10c03fcc 	andi	r3,r2,255
  1038b0:	18c0201c 	xori	r3,r3,128
  1038b4:	18ffe004 	addi	r3,r3,-128
  1038b8:	388000c5 	stb	r2,3(r7)
  1038bc:	1800031e 	bne	r3,zero,1038cc <OSTaskChangePrio+0x20c>
  1038c0:	20800283 	ldbu	r2,10(r4)
  1038c4:	4884703a 	and	r2,r9,r2
  1038c8:	20800285 	stb	r2,10(r4)
  1038cc:	20800283 	ldbu	r2,10(r4)
  1038d0:	40c000c3 	ldbu	r3,3(r8)
  1038d4:	1384b03a 	or	r2,r2,r14
  1038d8:	1b46b03a 	or	r3,r3,r13
  1038dc:	20800285 	stb	r2,10(r4)
  1038e0:	40c000c5 	stb	r3,3(r8)
  1038e4:	29000017 	ldw	r4,0(r5)
  1038e8:	5905883a 	add	r2,r11,r4
  1038ec:	12000204 	addi	r8,r2,8
  1038f0:	7905883a 	add	r2,r15,r4
  1038f4:	11c00204 	addi	r7,r2,8
  1038f8:	29400104 	addi	r5,r5,4
  1038fc:	203fe91e 	bne	r4,zero,1038a4 <OSTaskChangePrio+0x1e4>
  103900:	33400d45 	stb	r13,53(r6)
  103904:	35000c85 	stb	r20,50(r6)
  103908:	34c00d05 	stb	r19,52(r6)
  10390c:	34800cc5 	stb	r18,51(r6)
  103910:	33800d85 	stb	r14,54(r6)
  103914:	8801703a 	wrctl	status,r17
  103918:	00800474 	movhi	r2,17
  10391c:	10adf004 	addi	r2,r2,-18496
  103920:	10c00003 	ldbu	r3,0(r2)
  103924:	00800044 	movi	r2,1
  103928:	1880011e 	bne	r3,r2,103930 <OSTaskChangePrio+0x270>
  10392c:	01008ec0 	call	1008ec <OS_Sched>
  103930:	0005883a 	mov	r2,zero
  103934:	00000106 	br	10393c <OSTaskChangePrio+0x27c>
  103938:	00800a84 	movi	r2,42
  10393c:	dfc00517 	ldw	ra,20(sp)
  103940:	dd000417 	ldw	r20,16(sp)
  103944:	dcc00317 	ldw	r19,12(sp)
  103948:	dc800217 	ldw	r18,8(sp)
  10394c:	dc400117 	ldw	r17,4(sp)
  103950:	dc000017 	ldw	r16,0(sp)
  103954:	dec00604 	addi	sp,sp,24
  103958:	f800283a 	ret

0010395c <OSTaskCreate>:
  10395c:	defff804 	addi	sp,sp,-32
  103960:	dc000315 	stw	r16,12(sp)
  103964:	00800504 	movi	r2,20
  103968:	3c003fcc 	andi	r16,r7,255
  10396c:	dfc00715 	stw	ra,28(sp)
  103970:	dcc00615 	stw	r19,24(sp)
  103974:	dc800515 	stw	r18,20(sp)
  103978:	dc400415 	stw	r17,16(sp)
  10397c:	1400022e 	bgeu	r2,r16,103988 <OSTaskCreate+0x2c>
  103980:	00800a84 	movi	r2,42
  103984:	00003106 	br	103a4c <OSTaskCreate+0xf0>
  103988:	000f303a 	rdctl	r7,status
  10398c:	04ffff84 	movi	r19,-2
  103990:	3cc4703a 	and	r2,r7,r19
  103994:	1001703a 	wrctl	status,r2
  103998:	00800474 	movhi	r2,17
  10399c:	10adff04 	addi	r2,r2,-18436
  1039a0:	10800003 	ldbu	r2,0(r2)
  1039a4:	10000326 	beq	r2,zero,1039b4 <OSTaskCreate+0x58>
  1039a8:	3801703a 	wrctl	status,r7
  1039ac:	00800f04 	movi	r2,60
  1039b0:	00002606 	br	103a4c <OSTaskCreate+0xf0>
  1039b4:	8405883a 	add	r2,r16,r16
  1039b8:	1085883a 	add	r2,r2,r2
  1039bc:	00c00474 	movhi	r3,17
  1039c0:	18fd5704 	addi	r3,r3,-2724
  1039c4:	10e3883a 	add	r17,r2,r3
  1039c8:	88800017 	ldw	r2,0(r17)
  1039cc:	10001d1e 	bne	r2,zero,103a44 <OSTaskCreate+0xe8>
  1039d0:	04800044 	movi	r18,1
  1039d4:	8c800015 	stw	r18,0(r17)
  1039d8:	3801703a 	wrctl	status,r7
  1039dc:	000f883a 	mov	r7,zero
  1039e0:	01066d80 	call	1066d8 <OSTaskStkInit>
  1039e4:	100b883a 	mov	r5,r2
  1039e8:	8009883a 	mov	r4,r16
  1039ec:	000d883a 	mov	r6,zero
  1039f0:	000f883a 	mov	r7,zero
  1039f4:	d8000015 	stw	zero,0(sp)
  1039f8:	d8000115 	stw	zero,4(sp)
  1039fc:	d8000215 	stw	zero,8(sp)
  103a00:	01012f80 	call	1012f8 <OS_TCBInit>
  103a04:	1021883a 	mov	r16,r2
  103a08:	10803fcc 	andi	r2,r2,255
  103a0c:	1000061e 	bne	r2,zero,103a28 <OSTaskCreate+0xcc>
  103a10:	00800474 	movhi	r2,17
  103a14:	10adf004 	addi	r2,r2,-18496
  103a18:	10800003 	ldbu	r2,0(r2)
  103a1c:	1480071e 	bne	r2,r18,103a3c <OSTaskCreate+0xe0>
  103a20:	01008ec0 	call	1008ec <OS_Sched>
  103a24:	00000506 	br	103a3c <OSTaskCreate+0xe0>
  103a28:	0007303a 	rdctl	r3,status
  103a2c:	1cc4703a 	and	r2,r3,r19
  103a30:	1001703a 	wrctl	status,r2
  103a34:	88000015 	stw	zero,0(r17)
  103a38:	1801703a 	wrctl	status,r3
  103a3c:	80803fcc 	andi	r2,r16,255
  103a40:	00000206 	br	103a4c <OSTaskCreate+0xf0>
  103a44:	3801703a 	wrctl	status,r7
  103a48:	00800a04 	movi	r2,40
  103a4c:	dfc00717 	ldw	ra,28(sp)
  103a50:	dcc00617 	ldw	r19,24(sp)
  103a54:	dc800517 	ldw	r18,20(sp)
  103a58:	dc400417 	ldw	r17,16(sp)
  103a5c:	dc000317 	ldw	r16,12(sp)
  103a60:	dec00804 	addi	sp,sp,32
  103a64:	f800283a 	ret

00103a68 <OSTaskCreateExt>:
  103a68:	defff304 	addi	sp,sp,-52
  103a6c:	dc800515 	stw	r18,20(sp)
  103a70:	00800504 	movi	r2,20
  103a74:	3c803fcc 	andi	r18,r7,255
  103a78:	df000b15 	stw	fp,44(sp)
  103a7c:	dd800915 	stw	r22,36(sp)
  103a80:	dd400815 	stw	r21,32(sp)
  103a84:	dd000715 	stw	r20,28(sp)
  103a88:	dcc00615 	stw	r19,24(sp)
  103a8c:	dc000315 	stw	r16,12(sp)
  103a90:	dfc00c15 	stw	ra,48(sp)
  103a94:	ddc00a15 	stw	r23,40(sp)
  103a98:	dc400415 	stw	r17,16(sp)
  103a9c:	2027883a 	mov	r19,r4
  103aa0:	2829883a 	mov	r20,r5
  103aa4:	302b883a 	mov	r21,r6
  103aa8:	df000e17 	ldw	fp,56(sp)
  103aac:	dd800d0b 	ldhu	r22,52(sp)
  103ab0:	dc00110b 	ldhu	r16,68(sp)
  103ab4:	1480022e 	bgeu	r2,r18,103ac0 <OSTaskCreateExt+0x58>
  103ab8:	00800a84 	movi	r2,42
  103abc:	00003c06 	br	103bb0 <OSTaskCreateExt+0x148>
  103ac0:	0009303a 	rdctl	r4,status
  103ac4:	00ffff84 	movi	r3,-2
  103ac8:	20c4703a 	and	r2,r4,r3
  103acc:	1001703a 	wrctl	status,r2
  103ad0:	00800474 	movhi	r2,17
  103ad4:	10adff04 	addi	r2,r2,-18436
  103ad8:	10800003 	ldbu	r2,0(r2)
  103adc:	10000326 	beq	r2,zero,103aec <OSTaskCreateExt+0x84>
  103ae0:	2001703a 	wrctl	status,r4
  103ae4:	00800f04 	movi	r2,60
  103ae8:	00003106 	br	103bb0 <OSTaskCreateExt+0x148>
  103aec:	9485883a 	add	r2,r18,r18
  103af0:	1085883a 	add	r2,r2,r2
  103af4:	00c00474 	movhi	r3,17
  103af8:	18fd5704 	addi	r3,r3,-2724
  103afc:	10e3883a 	add	r17,r2,r3
  103b00:	88800017 	ldw	r2,0(r17)
  103b04:	1000281e 	bne	r2,zero,103ba8 <OSTaskCreateExt+0x140>
  103b08:	05c00044 	movi	r23,1
  103b0c:	8dc00015 	stw	r23,0(r17)
  103b10:	2001703a 	wrctl	status,r4
  103b14:	d9400f17 	ldw	r5,60(sp)
  103b18:	843fffcc 	andi	r16,r16,65535
  103b1c:	800d883a 	mov	r6,r16
  103b20:	e009883a 	mov	r4,fp
  103b24:	01035c80 	call	1035c8 <OS_TaskStkClr>
  103b28:	800f883a 	mov	r7,r16
  103b2c:	9809883a 	mov	r4,r19
  103b30:	a00b883a 	mov	r5,r20
  103b34:	a80d883a 	mov	r6,r21
  103b38:	01066d80 	call	1066d8 <OSTaskStkInit>
  103b3c:	100b883a 	mov	r5,r2
  103b40:	d8800f17 	ldw	r2,60(sp)
  103b44:	9009883a 	mov	r4,r18
  103b48:	e00d883a 	mov	r6,fp
  103b4c:	d8800015 	stw	r2,0(sp)
  103b50:	d8801017 	ldw	r2,64(sp)
  103b54:	b1ffffcc 	andi	r7,r22,65535
  103b58:	dc000215 	stw	r16,8(sp)
  103b5c:	d8800115 	stw	r2,4(sp)
  103b60:	01012f80 	call	1012f8 <OS_TCBInit>
  103b64:	1021883a 	mov	r16,r2
  103b68:	10803fcc 	andi	r2,r2,255
  103b6c:	1000061e 	bne	r2,zero,103b88 <OSTaskCreateExt+0x120>
  103b70:	00800474 	movhi	r2,17
  103b74:	10adf004 	addi	r2,r2,-18496
  103b78:	10800003 	ldbu	r2,0(r2)
  103b7c:	15c0081e 	bne	r2,r23,103ba0 <OSTaskCreateExt+0x138>
  103b80:	01008ec0 	call	1008ec <OS_Sched>
  103b84:	00000606 	br	103ba0 <OSTaskCreateExt+0x138>
  103b88:	0007303a 	rdctl	r3,status
  103b8c:	013fff84 	movi	r4,-2
  103b90:	1904703a 	and	r2,r3,r4
  103b94:	1001703a 	wrctl	status,r2
  103b98:	88000015 	stw	zero,0(r17)
  103b9c:	1801703a 	wrctl	status,r3
  103ba0:	80803fcc 	andi	r2,r16,255
  103ba4:	00000206 	br	103bb0 <OSTaskCreateExt+0x148>
  103ba8:	2001703a 	wrctl	status,r4
  103bac:	00800a04 	movi	r2,40
  103bb0:	dfc00c17 	ldw	ra,48(sp)
  103bb4:	df000b17 	ldw	fp,44(sp)
  103bb8:	ddc00a17 	ldw	r23,40(sp)
  103bbc:	dd800917 	ldw	r22,36(sp)
  103bc0:	dd400817 	ldw	r21,32(sp)
  103bc4:	dd000717 	ldw	r20,28(sp)
  103bc8:	dcc00617 	ldw	r19,24(sp)
  103bcc:	dc800517 	ldw	r18,20(sp)
  103bd0:	dc400417 	ldw	r17,16(sp)
  103bd4:	dc000317 	ldw	r16,12(sp)
  103bd8:	dec00d04 	addi	sp,sp,52
  103bdc:	f800283a 	ret

00103be0 <OSTaskDel>:
  103be0:	defffb04 	addi	sp,sp,-20
  103be4:	dfc00415 	stw	ra,16(sp)
  103be8:	dcc00315 	stw	r19,12(sp)
  103bec:	dc800215 	stw	r18,8(sp)
  103bf0:	dc400115 	stw	r17,4(sp)
  103bf4:	dc000015 	stw	r16,0(sp)
  103bf8:	00800474 	movhi	r2,17
  103bfc:	10adff04 	addi	r2,r2,-18436
  103c00:	10800003 	ldbu	r2,0(r2)
  103c04:	10000226 	beq	r2,zero,103c10 <OSTaskDel+0x30>
  103c08:	00801004 	movi	r2,64
  103c0c:	00008006 	br	103e10 <OSTaskDel+0x230>
  103c10:	20c03fcc 	andi	r3,r4,255
  103c14:	00800504 	movi	r2,20
  103c18:	1880021e 	bne	r3,r2,103c24 <OSTaskDel+0x44>
  103c1c:	00800f84 	movi	r2,62
  103c20:	00007b06 	br	103e10 <OSTaskDel+0x230>
  103c24:	008004c4 	movi	r2,19
  103c28:	10c0042e 	bgeu	r2,r3,103c3c <OSTaskDel+0x5c>
  103c2c:	00803fc4 	movi	r2,255
  103c30:	18806e26 	beq	r3,r2,103dec <OSTaskDel+0x20c>
  103c34:	00800a84 	movi	r2,42
  103c38:	00007506 	br	103e10 <OSTaskDel+0x230>
  103c3c:	0025303a 	rdctl	r18,status
  103c40:	00bfff84 	movi	r2,-2
  103c44:	9084703a 	and	r2,r18,r2
  103c48:	1001703a 	wrctl	status,r2
  103c4c:	20803fcc 	andi	r2,r4,255
  103c50:	1085883a 	add	r2,r2,r2
  103c54:	1085883a 	add	r2,r2,r2
  103c58:	00c00474 	movhi	r3,17
  103c5c:	18fd5704 	addi	r3,r3,-2724
  103c60:	10e7883a 	add	r19,r2,r3
  103c64:	9c000017 	ldw	r16,0(r19)
  103c68:	8000031e 	bne	r16,zero,103c78 <OSTaskDel+0x98>
  103c6c:	9001703a 	wrctl	status,r18
  103c70:	008010c4 	movi	r2,67
  103c74:	00006606 	br	103e10 <OSTaskDel+0x230>
  103c78:	00800044 	movi	r2,1
  103c7c:	8080031e 	bne	r16,r2,103c8c <OSTaskDel+0xac>
  103c80:	9001703a 	wrctl	status,r18
  103c84:	00800f44 	movi	r2,61
  103c88:	00006106 	br	103e10 <OSTaskDel+0x230>
  103c8c:	80c00d03 	ldbu	r3,52(r16)
  103c90:	01400474 	movhi	r5,17
  103c94:	296dfd44 	addi	r5,r5,-18443
  103c98:	80800d43 	ldbu	r2,53(r16)
  103c9c:	1947883a 	add	r3,r3,r5
  103ca0:	19000003 	ldbu	r4,0(r3)
  103ca4:	0084303a 	nor	r2,zero,r2
  103ca8:	1104703a 	and	r2,r2,r4
  103cac:	18800005 	stb	r2,0(r3)
  103cb0:	80800d03 	ldbu	r2,52(r16)
  103cb4:	1145883a 	add	r2,r2,r5
  103cb8:	10800003 	ldbu	r2,0(r2)
  103cbc:	1000071e 	bne	r2,zero,103cdc <OSTaskDel+0xfc>
  103cc0:	00800474 	movhi	r2,17
  103cc4:	10adfd04 	addi	r2,r2,-18444
  103cc8:	80c00d83 	ldbu	r3,54(r16)
  103ccc:	11000003 	ldbu	r4,0(r2)
  103cd0:	00c6303a 	nor	r3,zero,r3
  103cd4:	1906703a 	and	r3,r3,r4
  103cd8:	10c00005 	stb	r3,0(r2)
  103cdc:	81400717 	ldw	r5,28(r16)
  103ce0:	28000226 	beq	r5,zero,103cec <OSTaskDel+0x10c>
  103ce4:	8009883a 	mov	r4,r16
  103ce8:	01006240 	call	100624 <OS_EventTaskRemove>
  103cec:	81400817 	ldw	r5,32(r16)
  103cf0:	28000226 	beq	r5,zero,103cfc <OSTaskDel+0x11c>
  103cf4:	8009883a 	mov	r4,r16
  103cf8:	01006700 	call	100670 <OS_EventTaskRemoveMulti>
  103cfc:	81000a17 	ldw	r4,40(r16)
  103d00:	20000126 	beq	r4,zero,103d08 <OSTaskDel+0x128>
  103d04:	01016c80 	call	1016c8 <OS_FlagUnlink>
  103d08:	80000c05 	stb	zero,48(r16)
  103d0c:	80000c45 	stb	zero,49(r16)
  103d10:	04400474 	movhi	r17,17
  103d14:	8c6dee04 	addi	r17,r17,-18504
  103d18:	89000003 	ldbu	r4,0(r17)
  103d1c:	00803fc4 	movi	r2,255
  103d20:	80000b8d 	sth	zero,46(r16)
  103d24:	20c03fcc 	andi	r3,r4,255
  103d28:	18800226 	beq	r3,r2,103d34 <OSTaskDel+0x154>
  103d2c:	20800044 	addi	r2,r4,1
  103d30:	88800005 	stb	r2,0(r17)
  103d34:	9001703a 	wrctl	status,r18
  103d38:	01004fc0 	call	1004fc <OS_Dummy>
  103d3c:	0025303a 	rdctl	r18,status
  103d40:	00bfff84 	movi	r2,-2
  103d44:	9084703a 	and	r2,r18,r2
  103d48:	1001703a 	wrctl	status,r2
  103d4c:	88800003 	ldbu	r2,0(r17)
  103d50:	10000226 	beq	r2,zero,103d5c <OSTaskDel+0x17c>
  103d54:	10bfffc4 	addi	r2,r2,-1
  103d58:	88800005 	stb	r2,0(r17)
  103d5c:	8009883a 	mov	r4,r16
  103d60:	01066600 	call	106660 <OSTaskDelHook>
  103d64:	00c00474 	movhi	r3,17
  103d68:	18edf944 	addi	r3,r3,-18459
  103d6c:	18800003 	ldbu	r2,0(r3)
  103d70:	98000015 	stw	zero,0(r19)
  103d74:	10bfffc4 	addi	r2,r2,-1
  103d78:	18800005 	stb	r2,0(r3)
  103d7c:	80c00617 	ldw	r3,24(r16)
  103d80:	81000517 	ldw	r4,20(r16)
  103d84:	1800051e 	bne	r3,zero,103d9c <OSTaskDel+0x1bc>
  103d88:	20000615 	stw	zero,24(r4)
  103d8c:	00800474 	movhi	r2,17
  103d90:	10adf304 	addi	r2,r2,-18484
  103d94:	11000015 	stw	r4,0(r2)
  103d98:	00000306 	br	103da8 <OSTaskDel+0x1c8>
  103d9c:	19000515 	stw	r4,20(r3)
  103da0:	80800517 	ldw	r2,20(r16)
  103da4:	10c00615 	stw	r3,24(r2)
  103da8:	00c00474 	movhi	r3,17
  103dac:	18edf804 	addi	r3,r3,-18464
  103db0:	18800017 	ldw	r2,0(r3)
  103db4:	80800515 	stw	r2,20(r16)
  103db8:	1c000015 	stw	r16,0(r3)
  103dbc:	00800fc4 	movi	r2,63
  103dc0:	80801305 	stb	r2,76(r16)
  103dc4:	80001345 	stb	zero,77(r16)
  103dc8:	9001703a 	wrctl	status,r18
  103dcc:	00800474 	movhi	r2,17
  103dd0:	10adf004 	addi	r2,r2,-18496
  103dd4:	10c00003 	ldbu	r3,0(r2)
  103dd8:	00800044 	movi	r2,1
  103ddc:	1880011e 	bne	r3,r2,103de4 <OSTaskDel+0x204>
  103de0:	01008ec0 	call	1008ec <OS_Sched>
  103de4:	0005883a 	mov	r2,zero
  103de8:	00000906 	br	103e10 <OSTaskDel+0x230>
  103dec:	0025303a 	rdctl	r18,status
  103df0:	00bfff84 	movi	r2,-2
  103df4:	9084703a 	and	r2,r18,r2
  103df8:	1001703a 	wrctl	status,r2
  103dfc:	00800474 	movhi	r2,17
  103e00:	10ae0004 	addi	r2,r2,-18432
  103e04:	10800017 	ldw	r2,0(r2)
  103e08:	11000c83 	ldbu	r4,50(r2)
  103e0c:	003f8f06 	br	103c4c <OSTaskDel+0x6c>
  103e10:	dfc00417 	ldw	ra,16(sp)
  103e14:	dcc00317 	ldw	r19,12(sp)
  103e18:	dc800217 	ldw	r18,8(sp)
  103e1c:	dc400117 	ldw	r17,4(sp)
  103e20:	dc000017 	ldw	r16,0(sp)
  103e24:	dec00504 	addi	sp,sp,20
  103e28:	f800283a 	ret

00103e2c <OSTaskDelReq>:
  103e2c:	21003fcc 	andi	r4,r4,255
  103e30:	00800504 	movi	r2,20
  103e34:	2080021e 	bne	r4,r2,103e40 <OSTaskDelReq+0x14>
  103e38:	00800f84 	movi	r2,62
  103e3c:	f800283a 	ret
  103e40:	008004c4 	movi	r2,19
  103e44:	11000e2e 	bgeu	r2,r4,103e80 <OSTaskDelReq+0x54>
  103e48:	00803fc4 	movi	r2,255
  103e4c:	20800226 	beq	r4,r2,103e58 <OSTaskDelReq+0x2c>
  103e50:	00800a84 	movi	r2,42
  103e54:	f800283a 	ret
  103e58:	0007303a 	rdctl	r3,status
  103e5c:	00bfff84 	movi	r2,-2
  103e60:	1884703a 	and	r2,r3,r2
  103e64:	1001703a 	wrctl	status,r2
  103e68:	00800474 	movhi	r2,17
  103e6c:	10ae0004 	addi	r2,r2,-18432
  103e70:	10800017 	ldw	r2,0(r2)
  103e74:	10800dc3 	ldbu	r2,55(r2)
  103e78:	1801703a 	wrctl	status,r3
  103e7c:	f800283a 	ret
  103e80:	000b303a 	rdctl	r5,status
  103e84:	00bfff84 	movi	r2,-2
  103e88:	2884703a 	and	r2,r5,r2
  103e8c:	1001703a 	wrctl	status,r2
  103e90:	2105883a 	add	r2,r4,r4
  103e94:	1085883a 	add	r2,r2,r2
  103e98:	00c00474 	movhi	r3,17
  103e9c:	18fd5704 	addi	r3,r3,-2724
  103ea0:	10c5883a 	add	r2,r2,r3
  103ea4:	11000017 	ldw	r4,0(r2)
  103ea8:	2000031e 	bne	r4,zero,103eb8 <OSTaskDelReq+0x8c>
  103eac:	2801703a 	wrctl	status,r5
  103eb0:	008010c4 	movi	r2,67
  103eb4:	f800283a 	ret
  103eb8:	00800044 	movi	r2,1
  103ebc:	2080031e 	bne	r4,r2,103ecc <OSTaskDelReq+0xa0>
  103ec0:	2801703a 	wrctl	status,r5
  103ec4:	00800f44 	movi	r2,61
  103ec8:	f800283a 	ret
  103ecc:	00800fc4 	movi	r2,63
  103ed0:	20800dc5 	stb	r2,55(r4)
  103ed4:	2801703a 	wrctl	status,r5
  103ed8:	0005883a 	mov	r2,zero
  103edc:	f800283a 	ret

00103ee0 <OSTaskNameGet>:
  103ee0:	defffd04 	addi	sp,sp,-12
  103ee4:	dfc00215 	stw	ra,8(sp)
  103ee8:	dc000115 	stw	r16,4(sp)
  103eec:	3000021e 	bne	r6,zero,103ef8 <OSTaskNameGet+0x18>
  103ef0:	0007883a 	mov	r3,zero
  103ef4:	00003706 	br	103fd4 <OSTaskNameGet+0xf4>
  103ef8:	20c03fcc 	andi	r3,r4,255
  103efc:	00800504 	movi	r2,20
  103f00:	10c0052e 	bgeu	r2,r3,103f18 <OSTaskNameGet+0x38>
  103f04:	00803fc4 	movi	r2,255
  103f08:	18800326 	beq	r3,r2,103f18 <OSTaskNameGet+0x38>
  103f0c:	0007883a 	mov	r3,zero
  103f10:	00800a84 	movi	r2,42
  103f14:	00000306 	br	103f24 <OSTaskNameGet+0x44>
  103f18:	2800041e 	bne	r5,zero,103f2c <OSTaskNameGet+0x4c>
  103f1c:	0007883a 	mov	r3,zero
  103f20:	00800304 	movi	r2,12
  103f24:	30800005 	stb	r2,0(r6)
  103f28:	00002a06 	br	103fd4 <OSTaskNameGet+0xf4>
  103f2c:	00800474 	movhi	r2,17
  103f30:	10adff04 	addi	r2,r2,-18436
  103f34:	10800003 	ldbu	r2,0(r2)
  103f38:	10000326 	beq	r2,zero,103f48 <OSTaskNameGet+0x68>
  103f3c:	0007883a 	mov	r3,zero
  103f40:	00800444 	movi	r2,17
  103f44:	003ff706 	br	103f24 <OSTaskNameGet+0x44>
  103f48:	0021303a 	rdctl	r16,status
  103f4c:	00bfff84 	movi	r2,-2
  103f50:	8084703a 	and	r2,r16,r2
  103f54:	1001703a 	wrctl	status,r2
  103f58:	20c03fcc 	andi	r3,r4,255
  103f5c:	00803fc4 	movi	r2,255
  103f60:	1880041e 	bne	r3,r2,103f74 <OSTaskNameGet+0x94>
  103f64:	00800474 	movhi	r2,17
  103f68:	10ae0004 	addi	r2,r2,-18432
  103f6c:	10800017 	ldw	r2,0(r2)
  103f70:	11000c83 	ldbu	r4,50(r2)
  103f74:	20803fcc 	andi	r2,r4,255
  103f78:	1085883a 	add	r2,r2,r2
  103f7c:	00c00474 	movhi	r3,17
  103f80:	18fd5704 	addi	r3,r3,-2724
  103f84:	1085883a 	add	r2,r2,r2
  103f88:	10c5883a 	add	r2,r2,r3
  103f8c:	10c00017 	ldw	r3,0(r2)
  103f90:	1800021e 	bne	r3,zero,103f9c <OSTaskNameGet+0xbc>
  103f94:	8001703a 	wrctl	status,r16
  103f98:	00000406 	br	103fac <OSTaskNameGet+0xcc>
  103f9c:	00800044 	movi	r2,1
  103fa0:	1880041e 	bne	r3,r2,103fb4 <OSTaskNameGet+0xd4>
  103fa4:	8001703a 	wrctl	status,r16
  103fa8:	0007883a 	mov	r3,zero
  103fac:	008010c4 	movi	r2,67
  103fb0:	003fdc06 	br	103f24 <OSTaskNameGet+0x44>
  103fb4:	2809883a 	mov	r4,r5
  103fb8:	19401304 	addi	r5,r3,76
  103fbc:	d9800015 	stw	r6,0(sp)
  103fc0:	010081c0 	call	10081c <OS_StrCopy>
  103fc4:	8001703a 	wrctl	status,r16
  103fc8:	d9800017 	ldw	r6,0(sp)
  103fcc:	10c03fcc 	andi	r3,r2,255
  103fd0:	30000005 	stb	zero,0(r6)
  103fd4:	1805883a 	mov	r2,r3
  103fd8:	dfc00217 	ldw	ra,8(sp)
  103fdc:	dc000117 	ldw	r16,4(sp)
  103fe0:	dec00304 	addi	sp,sp,12
  103fe4:	f800283a 	ret

00103fe8 <OSTaskNameSet>:
  103fe8:	defffb04 	addi	sp,sp,-20
  103fec:	dc400215 	stw	r17,8(sp)
  103ff0:	dfc00415 	stw	ra,16(sp)
  103ff4:	dc800315 	stw	r18,12(sp)
  103ff8:	dc000115 	stw	r16,4(sp)
  103ffc:	2823883a 	mov	r17,r5
  104000:	30003a26 	beq	r6,zero,1040ec <OSTaskNameSet+0x104>
  104004:	20c03fcc 	andi	r3,r4,255
  104008:	00800504 	movi	r2,20
  10400c:	10c0042e 	bgeu	r2,r3,104020 <OSTaskNameSet+0x38>
  104010:	00803fc4 	movi	r2,255
  104014:	18800226 	beq	r3,r2,104020 <OSTaskNameSet+0x38>
  104018:	00800a84 	movi	r2,42
  10401c:	00000206 	br	104028 <OSTaskNameSet+0x40>
  104020:	8800031e 	bne	r17,zero,104030 <OSTaskNameSet+0x48>
  104024:	00800304 	movi	r2,12
  104028:	30800005 	stb	r2,0(r6)
  10402c:	00002f06 	br	1040ec <OSTaskNameSet+0x104>
  104030:	00800474 	movhi	r2,17
  104034:	10adff04 	addi	r2,r2,-18436
  104038:	10800003 	ldbu	r2,0(r2)
  10403c:	10000226 	beq	r2,zero,104048 <OSTaskNameSet+0x60>
  104040:	00800484 	movi	r2,18
  104044:	003ff806 	br	104028 <OSTaskNameSet+0x40>
  104048:	0025303a 	rdctl	r18,status
  10404c:	00bfff84 	movi	r2,-2
  104050:	9084703a 	and	r2,r18,r2
  104054:	1001703a 	wrctl	status,r2
  104058:	20c03fcc 	andi	r3,r4,255
  10405c:	00803fc4 	movi	r2,255
  104060:	1880041e 	bne	r3,r2,104074 <OSTaskNameSet+0x8c>
  104064:	00800474 	movhi	r2,17
  104068:	10ae0004 	addi	r2,r2,-18432
  10406c:	10800017 	ldw	r2,0(r2)
  104070:	11000c83 	ldbu	r4,50(r2)
  104074:	20803fcc 	andi	r2,r4,255
  104078:	1085883a 	add	r2,r2,r2
  10407c:	1085883a 	add	r2,r2,r2
  104080:	00c00474 	movhi	r3,17
  104084:	18fd5704 	addi	r3,r3,-2724
  104088:	10c5883a 	add	r2,r2,r3
  10408c:	14000017 	ldw	r16,0(r2)
  104090:	80000226 	beq	r16,zero,10409c <OSTaskNameSet+0xb4>
  104094:	00800044 	movi	r2,1
  104098:	8080031e 	bne	r16,r2,1040a8 <OSTaskNameSet+0xc0>
  10409c:	9001703a 	wrctl	status,r18
  1040a0:	008010c4 	movi	r2,67
  1040a4:	003fe006 	br	104028 <OSTaskNameSet+0x40>
  1040a8:	8809883a 	mov	r4,r17
  1040ac:	d9800015 	stw	r6,0(sp)
  1040b0:	01008480 	call	100848 <OS_StrLen>
  1040b4:	10803fcc 	andi	r2,r2,255
  1040b8:	00c007c4 	movi	r3,31
  1040bc:	d9800017 	ldw	r6,0(sp)
  1040c0:	1880032e 	bgeu	r3,r2,1040d0 <OSTaskNameSet+0xe8>
  1040c4:	9001703a 	wrctl	status,r18
  1040c8:	00801044 	movi	r2,65
  1040cc:	003fd606 	br	104028 <OSTaskNameSet+0x40>
  1040d0:	81001304 	addi	r4,r16,76
  1040d4:	880b883a 	mov	r5,r17
  1040d8:	d9800015 	stw	r6,0(sp)
  1040dc:	010081c0 	call	10081c <OS_StrCopy>
  1040e0:	9001703a 	wrctl	status,r18
  1040e4:	d9800017 	ldw	r6,0(sp)
  1040e8:	30000005 	stb	zero,0(r6)
  1040ec:	dfc00417 	ldw	ra,16(sp)
  1040f0:	dc800317 	ldw	r18,12(sp)
  1040f4:	dc400217 	ldw	r17,8(sp)
  1040f8:	dc000117 	ldw	r16,4(sp)
  1040fc:	dec00504 	addi	sp,sp,20
  104100:	f800283a 	ret

00104104 <OSTaskResume>:
  104104:	deffff04 	addi	sp,sp,-4
  104108:	21003fcc 	andi	r4,r4,255
  10410c:	008004c4 	movi	r2,19
  104110:	dfc00015 	stw	ra,0(sp)
  104114:	1100022e 	bgeu	r2,r4,104120 <OSTaskResume+0x1c>
  104118:	00800a84 	movi	r2,42
  10411c:	00003706 	br	1041fc <OSTaskResume+0xf8>
  104120:	000d303a 	rdctl	r6,status
  104124:	00bfff84 	movi	r2,-2
  104128:	3084703a 	and	r2,r6,r2
  10412c:	1001703a 	wrctl	status,r2
  104130:	2105883a 	add	r2,r4,r4
  104134:	1085883a 	add	r2,r2,r2
  104138:	00c00474 	movhi	r3,17
  10413c:	18fd5704 	addi	r3,r3,-2724
  104140:	10c5883a 	add	r2,r2,r3
  104144:	11400017 	ldw	r5,0(r2)
  104148:	2800031e 	bne	r5,zero,104158 <OSTaskResume+0x54>
  10414c:	3001703a 	wrctl	status,r6
  104150:	00801184 	movi	r2,70
  104154:	00002906 	br	1041fc <OSTaskResume+0xf8>
  104158:	01c00044 	movi	r7,1
  10415c:	29c0031e 	bne	r5,r7,10416c <OSTaskResume+0x68>
  104160:	3001703a 	wrctl	status,r6
  104164:	008010c4 	movi	r2,67
  104168:	00002406 	br	1041fc <OSTaskResume+0xf8>
  10416c:	29000c03 	ldbu	r4,48(r5)
  104170:	2080020c 	andi	r2,r4,8
  104174:	10001f26 	beq	r2,zero,1041f4 <OSTaskResume+0xf0>
  104178:	00fffdc4 	movi	r3,-9
  10417c:	20c6703a 	and	r3,r4,r3
  104180:	18803fcc 	andi	r2,r3,255
  104184:	28c00c05 	stb	r3,48(r5)
  104188:	1000181e 	bne	r2,zero,1041ec <OSTaskResume+0xe8>
  10418c:	28800b8b 	ldhu	r2,46(r5)
  104190:	1000161e 	bne	r2,zero,1041ec <OSTaskResume+0xe8>
  104194:	01000474 	movhi	r4,17
  104198:	212dfd04 	addi	r4,r4,-18444
  10419c:	28c00d83 	ldbu	r3,54(r5)
  1041a0:	20800003 	ldbu	r2,0(r4)
  1041a4:	10c4b03a 	or	r2,r2,r3
  1041a8:	20800005 	stb	r2,0(r4)
  1041ac:	28c00d03 	ldbu	r3,52(r5)
  1041b0:	00800474 	movhi	r2,17
  1041b4:	10adfd44 	addi	r2,r2,-18443
  1041b8:	29000d43 	ldbu	r4,53(r5)
  1041bc:	1887883a 	add	r3,r3,r2
  1041c0:	18800003 	ldbu	r2,0(r3)
  1041c4:	1104b03a 	or	r2,r2,r4
  1041c8:	18800005 	stb	r2,0(r3)
  1041cc:	3001703a 	wrctl	status,r6
  1041d0:	00800474 	movhi	r2,17
  1041d4:	10adf004 	addi	r2,r2,-18496
  1041d8:	10800003 	ldbu	r2,0(r2)
  1041dc:	11c0011e 	bne	r2,r7,1041e4 <OSTaskResume+0xe0>
  1041e0:	01008ec0 	call	1008ec <OS_Sched>
  1041e4:	0005883a 	mov	r2,zero
  1041e8:	00000406 	br	1041fc <OSTaskResume+0xf8>
  1041ec:	3001703a 	wrctl	status,r6
  1041f0:	003ffc06 	br	1041e4 <OSTaskResume+0xe0>
  1041f4:	3001703a 	wrctl	status,r6
  1041f8:	00801104 	movi	r2,68
  1041fc:	dfc00017 	ldw	ra,0(sp)
  104200:	dec00104 	addi	sp,sp,4
  104204:	f800283a 	ret

00104208 <OSTaskStkChk>:
  104208:	20c03fcc 	andi	r3,r4,255
  10420c:	00800504 	movi	r2,20
  104210:	10c0042e 	bgeu	r2,r3,104224 <OSTaskStkChk+0x1c>
  104214:	00803fc4 	movi	r2,255
  104218:	18800226 	beq	r3,r2,104224 <OSTaskStkChk+0x1c>
  10421c:	00800a84 	movi	r2,42
  104220:	f800283a 	ret
  104224:	2800021e 	bne	r5,zero,104230 <OSTaskStkChk+0x28>
  104228:	00800244 	movi	r2,9
  10422c:	f800283a 	ret
  104230:	28000015 	stw	zero,0(r5)
  104234:	28000115 	stw	zero,4(r5)
  104238:	000f303a 	rdctl	r7,status
  10423c:	00bfff84 	movi	r2,-2
  104240:	3884703a 	and	r2,r7,r2
  104244:	1001703a 	wrctl	status,r2
  104248:	20c03fcc 	andi	r3,r4,255
  10424c:	00803fc4 	movi	r2,255
  104250:	1880041e 	bne	r3,r2,104264 <OSTaskStkChk+0x5c>
  104254:	00800474 	movhi	r2,17
  104258:	10ae0004 	addi	r2,r2,-18432
  10425c:	10800017 	ldw	r2,0(r2)
  104260:	11000c83 	ldbu	r4,50(r2)
  104264:	20803fcc 	andi	r2,r4,255
  104268:	1085883a 	add	r2,r2,r2
  10426c:	00c00474 	movhi	r3,17
  104270:	18fd5704 	addi	r3,r3,-2724
  104274:	1085883a 	add	r2,r2,r2
  104278:	10c5883a 	add	r2,r2,r3
  10427c:	10c00017 	ldw	r3,0(r2)
  104280:	18000226 	beq	r3,zero,10428c <OSTaskStkChk+0x84>
  104284:	00800044 	movi	r2,1
  104288:	1880031e 	bne	r3,r2,104298 <OSTaskStkChk+0x90>
  10428c:	3801703a 	wrctl	status,r7
  104290:	008010c4 	movi	r2,67
  104294:	f800283a 	ret
  104298:	1880040b 	ldhu	r2,16(r3)
  10429c:	1080004c 	andi	r2,r2,1
  1042a0:	1000031e 	bne	r2,zero,1042b0 <OSTaskStkChk+0xa8>
  1042a4:	3801703a 	wrctl	status,r7
  1042a8:	00801144 	movi	r2,69
  1042ac:	f800283a 	ret
  1042b0:	19800217 	ldw	r6,8(r3)
  1042b4:	19000317 	ldw	r4,12(r3)
  1042b8:	3801703a 	wrctl	status,r7
  1042bc:	0007883a 	mov	r3,zero
  1042c0:	00000106 	br	1042c8 <OSTaskStkChk+0xc0>
  1042c4:	18c00044 	addi	r3,r3,1
  1042c8:	30800017 	ldw	r2,0(r6)
  1042cc:	31800104 	addi	r6,r6,4
  1042d0:	103ffc26 	beq	r2,zero,1042c4 <OSTaskStkChk+0xbc>
  1042d4:	20c5c83a 	sub	r2,r4,r3
  1042d8:	1085883a 	add	r2,r2,r2
  1042dc:	1085883a 	add	r2,r2,r2
  1042e0:	18c7883a 	add	r3,r3,r3
  1042e4:	18c7883a 	add	r3,r3,r3
  1042e8:	28800115 	stw	r2,4(r5)
  1042ec:	0005883a 	mov	r2,zero
  1042f0:	28c00015 	stw	r3,0(r5)
  1042f4:	f800283a 	ret

001042f8 <OSTaskSuspend>:
  1042f8:	deffff04 	addi	sp,sp,-4
  1042fc:	20c03fcc 	andi	r3,r4,255
  104300:	00800504 	movi	r2,20
  104304:	dfc00015 	stw	ra,0(sp)
  104308:	1880021e 	bne	r3,r2,104314 <OSTaskSuspend+0x1c>
  10430c:	008011c4 	movi	r2,71
  104310:	00004706 	br	104430 <OSTaskSuspend+0x138>
  104314:	008004c4 	movi	r2,19
  104318:	10c0042e 	bgeu	r2,r3,10432c <OSTaskSuspend+0x34>
  10431c:	00803fc4 	movi	r2,255
  104320:	18803926 	beq	r3,r2,104408 <OSTaskSuspend+0x110>
  104324:	00800a84 	movi	r2,42
  104328:	00004106 	br	104430 <OSTaskSuspend+0x138>
  10432c:	000f303a 	rdctl	r7,status
  104330:	00bfff84 	movi	r2,-2
  104334:	3884703a 	and	r2,r7,r2
  104338:	1001703a 	wrctl	status,r2
  10433c:	00800474 	movhi	r2,17
  104340:	10ae0004 	addi	r2,r2,-18432
  104344:	10800017 	ldw	r2,0(r2)
  104348:	10800c83 	ldbu	r2,50(r2)
  10434c:	1885003a 	cmpeq	r2,r3,r2
  104350:	100d883a 	mov	r6,r2
  104354:	20803fcc 	andi	r2,r4,255
  104358:	1085883a 	add	r2,r2,r2
  10435c:	1085883a 	add	r2,r2,r2
  104360:	00c00474 	movhi	r3,17
  104364:	18fd5704 	addi	r3,r3,-2724
  104368:	10c5883a 	add	r2,r2,r3
  10436c:	11400017 	ldw	r5,0(r2)
  104370:	2800031e 	bne	r5,zero,104380 <OSTaskSuspend+0x88>
  104374:	3801703a 	wrctl	status,r7
  104378:	00801204 	movi	r2,72
  10437c:	00002c06 	br	104430 <OSTaskSuspend+0x138>
  104380:	02000044 	movi	r8,1
  104384:	2a00031e 	bne	r5,r8,104394 <OSTaskSuspend+0x9c>
  104388:	3801703a 	wrctl	status,r7
  10438c:	008010c4 	movi	r2,67
  104390:	00002706 	br	104430 <OSTaskSuspend+0x138>
  104394:	29000d03 	ldbu	r4,52(r5)
  104398:	00c00474 	movhi	r3,17
  10439c:	18edfd44 	addi	r3,r3,-18443
  1043a0:	28800d43 	ldbu	r2,53(r5)
  1043a4:	20c9883a 	add	r4,r4,r3
  1043a8:	20c00003 	ldbu	r3,0(r4)
  1043ac:	0084303a 	nor	r2,zero,r2
  1043b0:	10c4703a 	and	r2,r2,r3
  1043b4:	10c03fcc 	andi	r3,r2,255
  1043b8:	18c0201c 	xori	r3,r3,128
  1043bc:	18ffe004 	addi	r3,r3,-128
  1043c0:	20800005 	stb	r2,0(r4)
  1043c4:	1800071e 	bne	r3,zero,1043e4 <OSTaskSuspend+0xec>
  1043c8:	00800474 	movhi	r2,17
  1043cc:	10adfd04 	addi	r2,r2,-18444
  1043d0:	28c00d83 	ldbu	r3,54(r5)
  1043d4:	11000003 	ldbu	r4,0(r2)
  1043d8:	00c6303a 	nor	r3,zero,r3
  1043dc:	1906703a 	and	r3,r3,r4
  1043e0:	10c00005 	stb	r3,0(r2)
  1043e4:	28800c03 	ldbu	r2,48(r5)
  1043e8:	10800214 	ori	r2,r2,8
  1043ec:	28800c05 	stb	r2,48(r5)
  1043f0:	3801703a 	wrctl	status,r7
  1043f4:	30803fcc 	andi	r2,r6,255
  1043f8:	1200011e 	bne	r2,r8,104400 <OSTaskSuspend+0x108>
  1043fc:	01008ec0 	call	1008ec <OS_Sched>
  104400:	0005883a 	mov	r2,zero
  104404:	00000a06 	br	104430 <OSTaskSuspend+0x138>
  104408:	000f303a 	rdctl	r7,status
  10440c:	00bfff84 	movi	r2,-2
  104410:	3884703a 	and	r2,r7,r2
  104414:	1001703a 	wrctl	status,r2
  104418:	00800474 	movhi	r2,17
  10441c:	10ae0004 	addi	r2,r2,-18432
  104420:	10800017 	ldw	r2,0(r2)
  104424:	01800044 	movi	r6,1
  104428:	11000c83 	ldbu	r4,50(r2)
  10442c:	003fc906 	br	104354 <OSTaskSuspend+0x5c>
  104430:	dfc00017 	ldw	ra,0(sp)
  104434:	dec00104 	addi	sp,sp,4
  104438:	f800283a 	ret

0010443c <OSTimeSet>:
  10443c:	0007303a 	rdctl	r3,status
  104440:	00bfff84 	movi	r2,-2
  104444:	1884703a 	and	r2,r3,r2
  104448:	1001703a 	wrctl	status,r2
  10444c:	00800474 	movhi	r2,17
  104450:	10ae0204 	addi	r2,r2,-18424
  104454:	11000015 	stw	r4,0(r2)
  104458:	1801703a 	wrctl	status,r3
  10445c:	f800283a 	ret

00104460 <OSTimeDly>:
  104460:	00800474 	movhi	r2,17
  104464:	10adff04 	addi	r2,r2,-18436
  104468:	10c00003 	ldbu	r3,0(r2)
  10446c:	200d883a 	mov	r6,r4
  104470:	20bfffcc 	andi	r2,r4,65535
  104474:	18001f1e 	bne	r3,zero,1044f4 <OSTimeDly+0x94>
  104478:	10001e26 	beq	r2,zero,1044f4 <OSTimeDly+0x94>
  10447c:	0011303a 	rdctl	r8,status
  104480:	00bfff84 	movi	r2,-2
  104484:	4084703a 	and	r2,r8,r2
  104488:	1001703a 	wrctl	status,r2
  10448c:	00800474 	movhi	r2,17
  104490:	10ae0004 	addi	r2,r2,-18432
  104494:	11400017 	ldw	r5,0(r2)
  104498:	00c00474 	movhi	r3,17
  10449c:	18edfd44 	addi	r3,r3,-18443
  1044a0:	01c00474 	movhi	r7,17
  1044a4:	39edfd04 	addi	r7,r7,-18444
  1044a8:	29000d03 	ldbu	r4,52(r5)
  1044ac:	28800d43 	ldbu	r2,53(r5)
  1044b0:	20c9883a 	add	r4,r4,r3
  1044b4:	20c00003 	ldbu	r3,0(r4)
  1044b8:	0084303a 	nor	r2,zero,r2
  1044bc:	10c4703a 	and	r2,r2,r3
  1044c0:	10c03fcc 	andi	r3,r2,255
  1044c4:	18c0201c 	xori	r3,r3,128
  1044c8:	18ffe004 	addi	r3,r3,-128
  1044cc:	20800005 	stb	r2,0(r4)
  1044d0:	1800051e 	bne	r3,zero,1044e8 <OSTimeDly+0x88>
  1044d4:	28800d83 	ldbu	r2,54(r5)
  1044d8:	38c00003 	ldbu	r3,0(r7)
  1044dc:	0084303a 	nor	r2,zero,r2
  1044e0:	10c4703a 	and	r2,r2,r3
  1044e4:	38800005 	stb	r2,0(r7)
  1044e8:	29800b8d 	sth	r6,46(r5)
  1044ec:	4001703a 	wrctl	status,r8
  1044f0:	01008ec1 	jmpi	1008ec <OS_Sched>
  1044f4:	f800283a 	ret

001044f8 <OSTimeDlyHMSM>:
  1044f8:	defffb04 	addi	sp,sp,-20
  1044fc:	dc800215 	stw	r18,8(sp)
  104500:	dc400115 	stw	r17,4(sp)
  104504:	dfc00415 	stw	ra,16(sp)
  104508:	dcc00315 	stw	r19,12(sp)
  10450c:	dc000015 	stw	r16,0(sp)
  104510:	00800474 	movhi	r2,17
  104514:	10adff04 	addi	r2,r2,-18436
  104518:	10800003 	ldbu	r2,0(r2)
  10451c:	2825883a 	mov	r18,r5
  104520:	3023883a 	mov	r17,r6
  104524:	10000226 	beq	r2,zero,104530 <OSTimeDlyHMSM+0x38>
  104528:	00801544 	movi	r2,85
  10452c:	00005306 	br	10467c <OSTimeDlyHMSM+0x184>
  104530:	20803fcc 	andi	r2,r4,255
  104534:	1000081e 	bne	r2,zero,104558 <OSTimeDlyHMSM+0x60>
  104538:	28803fcc 	andi	r2,r5,255
  10453c:	1000061e 	bne	r2,zero,104558 <OSTimeDlyHMSM+0x60>
  104540:	30803fcc 	andi	r2,r6,255
  104544:	1000091e 	bne	r2,zero,10456c <OSTimeDlyHMSM+0x74>
  104548:	38bfffcc 	andi	r2,r7,65535
  10454c:	10000c1e 	bne	r2,zero,104580 <OSTimeDlyHMSM+0x88>
  104550:	00801504 	movi	r2,84
  104554:	00004906 	br	10467c <OSTimeDlyHMSM+0x184>
  104558:	90c03fcc 	andi	r3,r18,255
  10455c:	00800ec4 	movi	r2,59
  104560:	10c0022e 	bgeu	r2,r3,10456c <OSTimeDlyHMSM+0x74>
  104564:	00801444 	movi	r2,81
  104568:	00004406 	br	10467c <OSTimeDlyHMSM+0x184>
  10456c:	88c03fcc 	andi	r3,r17,255
  104570:	00800ec4 	movi	r2,59
  104574:	10c0022e 	bgeu	r2,r3,104580 <OSTimeDlyHMSM+0x88>
  104578:	00801484 	movi	r2,82
  10457c:	00003f06 	br	10467c <OSTimeDlyHMSM+0x184>
  104580:	3cffffcc 	andi	r19,r7,65535
  104584:	0080f9c4 	movi	r2,999
  104588:	14c0022e 	bgeu	r2,r19,104594 <OSTimeDlyHMSM+0x9c>
  10458c:	008014c4 	movi	r2,83
  104590:	00003a06 	br	10467c <OSTimeDlyHMSM+0x184>
  104594:	21003fcc 	andi	r4,r4,255
  104598:	01438404 	movi	r5,3600
  10459c:	01080140 	call	108014 <__mulsi3>
  1045a0:	91003fcc 	andi	r4,r18,255
  1045a4:	01400f04 	movi	r5,60
  1045a8:	1021883a 	mov	r16,r2
  1045ac:	01080140 	call	108014 <__mulsi3>
  1045b0:	80a1883a 	add	r16,r16,r2
  1045b4:	89003fcc 	andi	r4,r17,255
  1045b8:	8109883a 	add	r4,r16,r4
  1045bc:	0107d340 	call	107d34 <__floatunsidf>
  1045c0:	045023f4 	movhi	r17,16527
  1045c4:	8c500004 	addi	r17,r17,16384
  1045c8:	0021883a 	mov	r16,zero
  1045cc:	800d883a 	mov	r6,r16
  1045d0:	180b883a 	mov	r5,r3
  1045d4:	880f883a 	mov	r7,r17
  1045d8:	1009883a 	mov	r4,r2
  1045dc:	01074c00 	call	1074c0 <__muldf3>
  1045e0:	9809883a 	mov	r4,r19
  1045e4:	1025883a 	mov	r18,r2
  1045e8:	1827883a 	mov	r19,r3
  1045ec:	0107d340 	call	107d34 <__floatunsidf>
  1045f0:	0011883a 	mov	r8,zero
  1045f4:	024ff834 	movhi	r9,16352
  1045f8:	480f883a 	mov	r7,r9
  1045fc:	400d883a 	mov	r6,r8
  104600:	180b883a 	mov	r5,r3
  104604:	1009883a 	mov	r4,r2
  104608:	010744c0 	call	10744c <__adddf3>
  10460c:	180b883a 	mov	r5,r3
  104610:	000d883a 	mov	r6,zero
  104614:	880f883a 	mov	r7,r17
  104618:	1009883a 	mov	r4,r2
  10461c:	01074c00 	call	1074c0 <__muldf3>
  104620:	180b883a 	mov	r5,r3
  104624:	000d883a 	mov	r6,zero
  104628:	880f883a 	mov	r7,r17
  10462c:	1009883a 	mov	r4,r2
  104630:	01078840 	call	107884 <__divdf3>
  104634:	180f883a 	mov	r7,r3
  104638:	980b883a 	mov	r5,r19
  10463c:	9009883a 	mov	r4,r18
  104640:	100d883a 	mov	r6,r2
  104644:	010744c0 	call	10744c <__adddf3>
  104648:	1009883a 	mov	r4,r2
  10464c:	180b883a 	mov	r5,r3
  104650:	0106f180 	call	106f18 <__fixunsdfsi>
  104654:	1020d43a 	srli	r16,r2,16
  104658:	113fffcc 	andi	r4,r2,65535
  10465c:	00000206 	br	104668 <OSTimeDlyHMSM+0x170>
  104660:	01044600 	call	104460 <OSTimeDly>
  104664:	01200014 	movui	r4,32768
  104668:	01044600 	call	104460 <OSTimeDly>
  10466c:	80bfffcc 	andi	r2,r16,65535
  104670:	01200014 	movui	r4,32768
  104674:	843fffc4 	addi	r16,r16,-1
  104678:	103ff91e 	bne	r2,zero,104660 <OSTimeDlyHMSM+0x168>
  10467c:	dfc00417 	ldw	ra,16(sp)
  104680:	dcc00317 	ldw	r19,12(sp)
  104684:	dc800217 	ldw	r18,8(sp)
  104688:	dc400117 	ldw	r17,4(sp)
  10468c:	dc000017 	ldw	r16,0(sp)
  104690:	dec00504 	addi	sp,sp,20
  104694:	f800283a 	ret

00104698 <OSTimeDlyResume>:
  104698:	deffff04 	addi	sp,sp,-4
  10469c:	21003fcc 	andi	r4,r4,255
  1046a0:	008004c4 	movi	r2,19
  1046a4:	dfc00015 	stw	ra,0(sp)
  1046a8:	1100022e 	bgeu	r2,r4,1046b4 <OSTimeDlyResume+0x1c>
  1046ac:	00800a84 	movi	r2,42
  1046b0:	00003406 	br	104784 <OSTimeDlyResume+0xec>
  1046b4:	000d303a 	rdctl	r6,status
  1046b8:	00bfff84 	movi	r2,-2
  1046bc:	3084703a 	and	r2,r6,r2
  1046c0:	1001703a 	wrctl	status,r2
  1046c4:	2105883a 	add	r2,r4,r4
  1046c8:	1085883a 	add	r2,r2,r2
  1046cc:	00c00474 	movhi	r3,17
  1046d0:	18fd5704 	addi	r3,r3,-2724
  1046d4:	10c5883a 	add	r2,r2,r3
  1046d8:	11400017 	ldw	r5,0(r2)
  1046dc:	28000226 	beq	r5,zero,1046e8 <OSTimeDlyResume+0x50>
  1046e0:	01000044 	movi	r4,1
  1046e4:	2900031e 	bne	r5,r4,1046f4 <OSTimeDlyResume+0x5c>
  1046e8:	3001703a 	wrctl	status,r6
  1046ec:	008010c4 	movi	r2,67
  1046f0:	00002406 	br	104784 <OSTimeDlyResume+0xec>
  1046f4:	28800b8b 	ldhu	r2,46(r5)
  1046f8:	1000031e 	bne	r2,zero,104708 <OSTimeDlyResume+0x70>
  1046fc:	3001703a 	wrctl	status,r6
  104700:	00801404 	movi	r2,80
  104704:	00001f06 	br	104784 <OSTimeDlyResume+0xec>
  104708:	28c00c03 	ldbu	r3,48(r5)
  10470c:	28000b8d 	sth	zero,46(r5)
  104710:	18800dcc 	andi	r2,r3,55
  104714:	10000426 	beq	r2,zero,104728 <OSTimeDlyResume+0x90>
  104718:	1880320c 	andi	r2,r3,200
  10471c:	28800c05 	stb	r2,48(r5)
  104720:	29000c45 	stb	r4,49(r5)
  104724:	00000106 	br	10472c <OSTimeDlyResume+0x94>
  104728:	28000c45 	stb	zero,49(r5)
  10472c:	28800c03 	ldbu	r2,48(r5)
  104730:	1080020c 	andi	r2,r2,8
  104734:	1000111e 	bne	r2,zero,10477c <OSTimeDlyResume+0xe4>
  104738:	01000474 	movhi	r4,17
  10473c:	212dfd04 	addi	r4,r4,-18444
  104740:	28c00d83 	ldbu	r3,54(r5)
  104744:	20800003 	ldbu	r2,0(r4)
  104748:	10c4b03a 	or	r2,r2,r3
  10474c:	20800005 	stb	r2,0(r4)
  104750:	28c00d03 	ldbu	r3,52(r5)
  104754:	00800474 	movhi	r2,17
  104758:	10adfd44 	addi	r2,r2,-18443
  10475c:	29000d43 	ldbu	r4,53(r5)
  104760:	1887883a 	add	r3,r3,r2
  104764:	18800003 	ldbu	r2,0(r3)
  104768:	1104b03a 	or	r2,r2,r4
  10476c:	18800005 	stb	r2,0(r3)
  104770:	3001703a 	wrctl	status,r6
  104774:	01008ec0 	call	1008ec <OS_Sched>
  104778:	00000106 	br	104780 <OSTimeDlyResume+0xe8>
  10477c:	3001703a 	wrctl	status,r6
  104780:	0005883a 	mov	r2,zero
  104784:	dfc00017 	ldw	ra,0(sp)
  104788:	dec00104 	addi	sp,sp,4
  10478c:	f800283a 	ret

00104790 <OSTimeGet>:
  104790:	0007303a 	rdctl	r3,status
  104794:	00bfff84 	movi	r2,-2
  104798:	1884703a 	and	r2,r3,r2
  10479c:	1001703a 	wrctl	status,r2
  1047a0:	00800474 	movhi	r2,17
  1047a4:	10ae0204 	addi	r2,r2,-18424
  1047a8:	10800017 	ldw	r2,0(r2)
  1047ac:	1801703a 	wrctl	status,r3
  1047b0:	f800283a 	ret

001047b4 <OSTmr_Free>:
  1047b4:	00800fc4 	movi	r2,63
  1047b8:	20800805 	stb	r2,32(r4)
  1047bc:	20000c45 	stb	zero,49(r4)
  1047c0:	20000c05 	stb	zero,48(r4)
  1047c4:	20000845 	stb	zero,33(r4)
  1047c8:	01800474 	movhi	r6,17
  1047cc:	31adf204 	addi	r6,r6,-18488
  1047d0:	01c00474 	movhi	r7,17
  1047d4:	39edf604 	addi	r7,r7,-18472
  1047d8:	01400474 	movhi	r5,17
  1047dc:	296ded04 	addi	r5,r5,-18508
  1047e0:	3080000b 	ldhu	r2,0(r6)
  1047e4:	38c0000b 	ldhu	r3,0(r7)
  1047e8:	2a000017 	ldw	r8,0(r5)
  1047ec:	10bfffc4 	addi	r2,r2,-1
  1047f0:	18c00044 	addi	r3,r3,1
  1047f4:	29000015 	stw	r4,0(r5)
  1047f8:	3080000d 	sth	r2,0(r6)
  1047fc:	38c0000d 	sth	r3,0(r7)
  104800:	22000315 	stw	r8,12(r4)
  104804:	20000715 	stw	zero,28(r4)
  104808:	20000515 	stw	zero,20(r4)
  10480c:	20000115 	stw	zero,4(r4)
  104810:	20000215 	stw	zero,8(r4)
  104814:	20000415 	stw	zero,16(r4)
  104818:	f800283a 	ret

0010481c <OSTmr_Link>:
  10481c:	008000c4 	movi	r2,3
  104820:	20800c45 	stb	r2,49(r4)
  104824:	29403fcc 	andi	r5,r5,255
  104828:	00800044 	movi	r2,1
  10482c:	2880031e 	bne	r5,r2,10483c <OSTmr_Link+0x20>
  104830:	00800474 	movhi	r2,17
  104834:	10ae0104 	addi	r2,r2,-18428
  104838:	00000406 	br	10484c <OSTmr_Link+0x30>
  10483c:	21400617 	ldw	r5,24(r4)
  104840:	00800474 	movhi	r2,17
  104844:	10ae0104 	addi	r2,r2,-18428
  104848:	2800041e 	bne	r5,zero,10485c <OSTmr_Link+0x40>
  10484c:	10c00017 	ldw	r3,0(r2)
  104850:	20800717 	ldw	r2,28(r4)
  104854:	10c5883a 	add	r2,r2,r3
  104858:	00000206 	br	104864 <OSTmr_Link+0x48>
  10485c:	10800017 	ldw	r2,0(r2)
  104860:	2885883a 	add	r2,r5,r2
  104864:	20800515 	stw	r2,20(r4)
  104868:	20800517 	ldw	r2,20(r4)
  10486c:	00c00474 	movhi	r3,17
  104870:	18ee0f04 	addi	r3,r3,-18372
  104874:	1080004c 	andi	r2,r2,1
  104878:	100490fa 	slli	r2,r2,3
  10487c:	10c7883a 	add	r3,r2,r3
  104880:	19400017 	ldw	r5,0(r3)
  104884:	2800051e 	bne	r5,zero,10489c <OSTmr_Link+0x80>
  104888:	00800044 	movi	r2,1
  10488c:	1880010d 	sth	r2,4(r3)
  104890:	19000015 	stw	r4,0(r3)
  104894:	20000315 	stw	zero,12(r4)
  104898:	00000606 	br	1048b4 <OSTmr_Link+0x98>
  10489c:	1880010b 	ldhu	r2,4(r3)
  1048a0:	19000015 	stw	r4,0(r3)
  1048a4:	21400315 	stw	r5,12(r4)
  1048a8:	10800044 	addi	r2,r2,1
  1048ac:	1880010d 	sth	r2,4(r3)
  1048b0:	29000415 	stw	r4,16(r5)
  1048b4:	20000415 	stw	zero,16(r4)
  1048b8:	f800283a 	ret

001048bc <OSTmr_Unlink>:
  1048bc:	20800517 	ldw	r2,20(r4)
  1048c0:	00c00474 	movhi	r3,17
  1048c4:	18ee0f04 	addi	r3,r3,-18372
  1048c8:	21400317 	ldw	r5,12(r4)
  1048cc:	1080004c 	andi	r2,r2,1
  1048d0:	100490fa 	slli	r2,r2,3
  1048d4:	10c7883a 	add	r3,r2,r3
  1048d8:	18800017 	ldw	r2,0(r3)
  1048dc:	1100041e 	bne	r2,r4,1048f0 <OSTmr_Unlink+0x34>
  1048e0:	19400015 	stw	r5,0(r3)
  1048e4:	28000626 	beq	r5,zero,104900 <OSTmr_Unlink+0x44>
  1048e8:	28000415 	stw	zero,16(r5)
  1048ec:	00000406 	br	104900 <OSTmr_Unlink+0x44>
  1048f0:	20800417 	ldw	r2,16(r4)
  1048f4:	11400315 	stw	r5,12(r2)
  1048f8:	28000126 	beq	r5,zero,104900 <OSTmr_Unlink+0x44>
  1048fc:	28800415 	stw	r2,16(r5)
  104900:	00800044 	movi	r2,1
  104904:	20800c45 	stb	r2,49(r4)
  104908:	1880010b 	ldhu	r2,4(r3)
  10490c:	20000415 	stw	zero,16(r4)
  104910:	20000315 	stw	zero,12(r4)
  104914:	10bfffc4 	addi	r2,r2,-1
  104918:	1880010d 	sth	r2,4(r3)
  10491c:	f800283a 	ret

00104920 <OSTmr_Init>:
  104920:	defff804 	addi	sp,sp,-32
  104924:	01000474 	movhi	r4,17
  104928:	212eef04 	addi	r4,r4,-17476
  10492c:	0140d004 	movi	r5,832
  104930:	dfc00715 	stw	ra,28(sp)
  104934:	dc000615 	stw	r16,24(sp)
  104938:	01007dc0 	call	1007dc <OS_MemClr>
  10493c:	01000474 	movhi	r4,17
  104940:	212e0f04 	addi	r4,r4,-18372
  104944:	01400404 	movi	r5,16
  104948:	01007dc0 	call	1007dc <OS_MemClr>
  10494c:	01c00474 	movhi	r7,17
  104950:	39eefc04 	addi	r7,r7,-17424
  104954:	02001904 	movi	r8,100
  104958:	02400fc4 	movi	r9,63
  10495c:	3880c304 	addi	r2,r7,780
  104960:	3a3ff305 	stb	r8,-52(r7)
  104964:	383fff45 	stb	zero,-3(r7)
  104968:	39fff615 	stw	r7,-40(r7)
  10496c:	3a7ffb05 	stb	r9,-20(r7)
  104970:	383ffb45 	stb	zero,-19(r7)
  104974:	39c00d04 	addi	r7,r7,52
  104978:	38bff91e 	bne	r7,r2,104960 <OSTmr_Init+0x40>
  10497c:	00c00404 	movi	r3,16
  104980:	00800474 	movhi	r2,17
  104984:	10adf604 	addi	r2,r2,-18472
  104988:	10c0000d 	sth	r3,0(r2)
  10498c:	39bf3004 	addi	r6,r7,-832
  104990:	00800474 	movhi	r2,17
  104994:	10aded04 	addi	r2,r2,-18508
  104998:	397ff304 	addi	r5,r7,-52
  10499c:	11800015 	stw	r6,0(r2)
  1049a0:	3a3ff305 	stb	r8,-52(r7)
  1049a4:	2a400805 	stb	r9,32(r5)
  1049a8:	28000845 	stb	zero,33(r5)
  1049ac:	00800474 	movhi	r2,17
  1049b0:	10ae0104 	addi	r2,r2,-18428
  1049b4:	10000015 	stw	zero,0(r2)
  1049b8:	00800474 	movhi	r2,17
  1049bc:	10adf204 	addi	r2,r2,-18488
  1049c0:	1000000d 	sth	zero,0(r2)
  1049c4:	28000c45 	stb	zero,49(r5)
  1049c8:	28000315 	stw	zero,12(r5)
  1049cc:	01000044 	movi	r4,1
  1049d0:	01030900 	call	103090 <OSSemCreate>
  1049d4:	04000474 	movhi	r16,17
  1049d8:	842e0304 	addi	r16,r16,-18420
  1049dc:	0009883a 	mov	r4,zero
  1049e0:	80800015 	stw	r2,0(r16)
  1049e4:	01030900 	call	103090 <OSSemCreate>
  1049e8:	81000017 	ldw	r4,0(r16)
  1049ec:	04000474 	movhi	r16,17
  1049f0:	842def04 	addi	r16,r16,-18500
  1049f4:	80800015 	stw	r2,0(r16)
  1049f8:	d9800504 	addi	r6,sp,20
  1049fc:	01400474 	movhi	r5,17
  104a00:	29621704 	addi	r5,r5,-30628
  104a04:	01015500 	call	101550 <OSEventNameSet>
  104a08:	81000017 	ldw	r4,0(r16)
  104a0c:	d9800504 	addi	r6,sp,20
  104a10:	01400474 	movhi	r5,17
  104a14:	29621c04 	addi	r5,r5,-30608
  104a18:	01015500 	call	101550 <OSEventNameSet>
  104a1c:	00bfff54 	movui	r2,65533
  104a20:	00c00474 	movhi	r3,17
  104a24:	18f54304 	addi	r3,r3,-10996
  104a28:	d8800015 	stw	r2,0(sp)
  104a2c:	00808004 	movi	r2,512
  104a30:	1981ff04 	addi	r6,r3,2044
  104a34:	000f883a 	mov	r7,zero
  104a38:	d8800215 	stw	r2,8(sp)
  104a3c:	01000434 	movhi	r4,16
  104a40:	2112af04 	addi	r4,r4,19132
  104a44:	000b883a 	mov	r5,zero
  104a48:	008000c4 	movi	r2,3
  104a4c:	d8c00115 	stw	r3,4(sp)
  104a50:	d8800415 	stw	r2,16(sp)
  104a54:	d8000315 	stw	zero,12(sp)
  104a58:	0103a680 	call	103a68 <OSTaskCreateExt>
  104a5c:	0009883a 	mov	r4,zero
  104a60:	01400474 	movhi	r5,17
  104a64:	29622104 	addi	r5,r5,-30588
  104a68:	d9800544 	addi	r6,sp,21
  104a6c:	0103fe80 	call	103fe8 <OSTaskNameSet>
  104a70:	dfc00717 	ldw	ra,28(sp)
  104a74:	dc000617 	ldw	r16,24(sp)
  104a78:	dec00804 	addi	sp,sp,32
  104a7c:	f800283a 	ret

00104a80 <OSTmr_Lock>:
  104a80:	00800474 	movhi	r2,17
  104a84:	10ae0304 	addi	r2,r2,-18420
  104a88:	11000017 	ldw	r4,0(r2)
  104a8c:	defffe04 	addi	sp,sp,-8
  104a90:	000b883a 	mov	r5,zero
  104a94:	d80d883a 	mov	r6,sp
  104a98:	dfc00115 	stw	ra,4(sp)
  104a9c:	01032700 	call	103270 <OSSemPend>
  104aa0:	dfc00117 	ldw	ra,4(sp)
  104aa4:	dec00204 	addi	sp,sp,8
  104aa8:	f800283a 	ret

00104aac <OSTmr_Unlock>:
  104aac:	00800474 	movhi	r2,17
  104ab0:	10ae0304 	addi	r2,r2,-18420
  104ab4:	11000017 	ldw	r4,0(r2)
  104ab8:	01034c41 	jmpi	1034c4 <OSSemPost>

00104abc <OSTmr_Task>:
  104abc:	defffc04 	addi	sp,sp,-16
  104ac0:	dfc00315 	stw	ra,12(sp)
  104ac4:	dc400215 	stw	r17,8(sp)
  104ac8:	dc000115 	stw	r16,4(sp)
  104acc:	00800474 	movhi	r2,17
  104ad0:	10adef04 	addi	r2,r2,-18500
  104ad4:	11000017 	ldw	r4,0(r2)
  104ad8:	000b883a 	mov	r5,zero
  104adc:	d80d883a 	mov	r6,sp
  104ae0:	01032700 	call	103270 <OSSemPend>
  104ae4:	0104a800 	call	104a80 <OSTmr_Lock>
  104ae8:	01000474 	movhi	r4,17
  104aec:	212e0104 	addi	r4,r4,-18428
  104af0:	20800017 	ldw	r2,0(r4)
  104af4:	10800044 	addi	r2,r2,1
  104af8:	10c0004c 	andi	r3,r2,1
  104afc:	180690fa 	slli	r3,r3,3
  104b00:	20800015 	stw	r2,0(r4)
  104b04:	00800474 	movhi	r2,17
  104b08:	10ae0f04 	addi	r2,r2,-18372
  104b0c:	1887883a 	add	r3,r3,r2
  104b10:	1c000017 	ldw	r16,0(r3)
  104b14:	00001606 	br	104b70 <OSTmr_Task+0xb4>
  104b18:	00800474 	movhi	r2,17
  104b1c:	10ae0104 	addi	r2,r2,-18428
  104b20:	10c00017 	ldw	r3,0(r2)
  104b24:	80800517 	ldw	r2,20(r16)
  104b28:	84400317 	ldw	r17,12(r16)
  104b2c:	18800f1e 	bne	r3,r2,104b6c <OSTmr_Task+0xb0>
  104b30:	80800117 	ldw	r2,4(r16)
  104b34:	8009883a 	mov	r4,r16
  104b38:	10000226 	beq	r2,zero,104b44 <OSTmr_Task+0x88>
  104b3c:	81400217 	ldw	r5,8(r16)
  104b40:	103ee83a 	callr	r2
  104b44:	8009883a 	mov	r4,r16
  104b48:	01048bc0 	call	1048bc <OSTmr_Unlink>
  104b4c:	80800c03 	ldbu	r2,48(r16)
  104b50:	00c00084 	movi	r3,2
  104b54:	01400044 	movi	r5,1
  104b58:	8009883a 	mov	r4,r16
  104b5c:	10c0021e 	bne	r2,r3,104b68 <OSTmr_Task+0xac>
  104b60:	010481c0 	call	10481c <OSTmr_Link>
  104b64:	00000106 	br	104b6c <OSTmr_Task+0xb0>
  104b68:	80c00c45 	stb	r3,49(r16)
  104b6c:	8821883a 	mov	r16,r17
  104b70:	803fe91e 	bne	r16,zero,104b18 <OSTmr_Task+0x5c>
  104b74:	0104aac0 	call	104aac <OSTmr_Unlock>
  104b78:	003fd406 	br	104acc <OSTmr_Task+0x10>

00104b7c <OSTmrStop>:
  104b7c:	defffa04 	addi	sp,sp,-24
  104b80:	dd000415 	stw	r20,16(sp)
  104b84:	dcc00315 	stw	r19,12(sp)
  104b88:	dc800215 	stw	r18,8(sp)
  104b8c:	dc000015 	stw	r16,0(sp)
  104b90:	dfc00515 	stw	ra,20(sp)
  104b94:	dc400115 	stw	r17,4(sp)
  104b98:	3825883a 	mov	r18,r7
  104b9c:	2021883a 	mov	r16,r4
  104ba0:	3029883a 	mov	r20,r6
  104ba4:	2827883a 	mov	r19,r5
  104ba8:	38004126 	beq	r7,zero,104cb0 <OSTmrStop+0x134>
  104bac:	2000031e 	bne	r4,zero,104bbc <OSTmrStop+0x40>
  104bb0:	0007883a 	mov	r3,zero
  104bb4:	00bfe284 	movi	r2,-118
  104bb8:	00003806 	br	104c9c <OSTmrStop+0x120>
  104bbc:	20c00003 	ldbu	r3,0(r4)
  104bc0:	00801904 	movi	r2,100
  104bc4:	18800326 	beq	r3,r2,104bd4 <OSTmrStop+0x58>
  104bc8:	0007883a 	mov	r3,zero
  104bcc:	00bfe244 	movi	r2,-119
  104bd0:	00003206 	br	104c9c <OSTmrStop+0x120>
  104bd4:	00800474 	movhi	r2,17
  104bd8:	10adff04 	addi	r2,r2,-18436
  104bdc:	10800003 	ldbu	r2,0(r2)
  104be0:	10000326 	beq	r2,zero,104bf0 <OSTmrStop+0x74>
  104be4:	0007883a 	mov	r3,zero
  104be8:	00bfe2c4 	movi	r2,-117
  104bec:	00002b06 	br	104c9c <OSTmrStop+0x120>
  104bf0:	0104a800 	call	104a80 <OSTmr_Lock>
  104bf4:	84400c43 	ldbu	r17,49(r16)
  104bf8:	00800084 	movi	r2,2
  104bfc:	14400336 	bltu	r2,r17,104c0c <OSTmrStop+0x90>
  104c00:	04000044 	movi	r16,1
  104c04:	8c001e2e 	bgeu	r17,r16,104c80 <OSTmrStop+0x104>
  104c08:	00002106 	br	104c90 <OSTmrStop+0x114>
  104c0c:	008000c4 	movi	r2,3
  104c10:	8880241e 	bne	r17,r2,104ca4 <OSTmrStop+0x128>
  104c14:	8009883a 	mov	r4,r16
  104c18:	01048bc0 	call	1048bc <OSTmr_Unlink>
  104c1c:	99403fcc 	andi	r5,r19,255
  104c20:	90000005 	stb	zero,0(r18)
  104c24:	2c400426 	beq	r5,r17,104c38 <OSTmrStop+0xbc>
  104c28:	00800104 	movi	r2,4
  104c2c:	28800726 	beq	r5,r2,104c4c <OSTmrStop+0xd0>
  104c30:	28001026 	beq	r5,zero,104c74 <OSTmrStop+0xf8>
  104c34:	00000d06 	br	104c6c <OSTmrStop+0xf0>
  104c38:	80800117 	ldw	r2,4(r16)
  104c3c:	10000926 	beq	r2,zero,104c64 <OSTmrStop+0xe8>
  104c40:	81400217 	ldw	r5,8(r16)
  104c44:	8009883a 	mov	r4,r16
  104c48:	00000406 	br	104c5c <OSTmrStop+0xe0>
  104c4c:	80800117 	ldw	r2,4(r16)
  104c50:	10000426 	beq	r2,zero,104c64 <OSTmrStop+0xe8>
  104c54:	8009883a 	mov	r4,r16
  104c58:	a00b883a 	mov	r5,r20
  104c5c:	103ee83a 	callr	r2
  104c60:	00000406 	br	104c74 <OSTmrStop+0xf8>
  104c64:	00bfe3c4 	movi	r2,-113
  104c68:	00000106 	br	104c70 <OSTmrStop+0xf4>
  104c6c:	00bfe104 	movi	r2,-124
  104c70:	90800005 	stb	r2,0(r18)
  104c74:	0104aac0 	call	104aac <OSTmr_Unlock>
  104c78:	00c00044 	movi	r3,1
  104c7c:	00000d06 	br	104cb4 <OSTmrStop+0x138>
  104c80:	0104aac0 	call	104aac <OSTmr_Unlock>
  104c84:	8007883a 	mov	r3,r16
  104c88:	00bfe384 	movi	r2,-114
  104c8c:	00000306 	br	104c9c <OSTmrStop+0x120>
  104c90:	0104aac0 	call	104aac <OSTmr_Unlock>
  104c94:	0007883a 	mov	r3,zero
  104c98:	00bfe1c4 	movi	r2,-121
  104c9c:	90800005 	stb	r2,0(r18)
  104ca0:	00000406 	br	104cb4 <OSTmrStop+0x138>
  104ca4:	0104aac0 	call	104aac <OSTmr_Unlock>
  104ca8:	00bfe344 	movi	r2,-115
  104cac:	90800005 	stb	r2,0(r18)
  104cb0:	0007883a 	mov	r3,zero
  104cb4:	1805883a 	mov	r2,r3
  104cb8:	dfc00517 	ldw	ra,20(sp)
  104cbc:	dd000417 	ldw	r20,16(sp)
  104cc0:	dcc00317 	ldw	r19,12(sp)
  104cc4:	dc800217 	ldw	r18,8(sp)
  104cc8:	dc400117 	ldw	r17,4(sp)
  104ccc:	dc000017 	ldw	r16,0(sp)
  104cd0:	dec00604 	addi	sp,sp,24
  104cd4:	f800283a 	ret

00104cd8 <OSTmrStart>:
  104cd8:	defffc04 	addi	sp,sp,-16
  104cdc:	dc400115 	stw	r17,4(sp)
  104ce0:	dc000015 	stw	r16,0(sp)
  104ce4:	dfc00315 	stw	ra,12(sp)
  104ce8:	dc800215 	stw	r18,8(sp)
  104cec:	2823883a 	mov	r17,r5
  104cf0:	2021883a 	mov	r16,r4
  104cf4:	28003126 	beq	r5,zero,104dbc <OSTmrStart+0xe4>
  104cf8:	2000031e 	bne	r4,zero,104d08 <OSTmrStart+0x30>
  104cfc:	0007883a 	mov	r3,zero
  104d00:	00bfe284 	movi	r2,-118
  104d04:	00002806 	br	104da8 <OSTmrStart+0xd0>
  104d08:	20c00003 	ldbu	r3,0(r4)
  104d0c:	00801904 	movi	r2,100
  104d10:	18800326 	beq	r3,r2,104d20 <OSTmrStart+0x48>
  104d14:	0007883a 	mov	r3,zero
  104d18:	00bfe244 	movi	r2,-119
  104d1c:	00002206 	br	104da8 <OSTmrStart+0xd0>
  104d20:	00800474 	movhi	r2,17
  104d24:	10adff04 	addi	r2,r2,-18436
  104d28:	10800003 	ldbu	r2,0(r2)
  104d2c:	10000326 	beq	r2,zero,104d3c <OSTmrStart+0x64>
  104d30:	0007883a 	mov	r3,zero
  104d34:	00bfe2c4 	movi	r2,-117
  104d38:	00001b06 	br	104da8 <OSTmrStart+0xd0>
  104d3c:	0104a800 	call	104a80 <OSTmr_Lock>
  104d40:	80c00c43 	ldbu	r3,49(r16)
  104d44:	00800084 	movi	r2,2
  104d48:	10c00336 	bltu	r2,r3,104d58 <OSTmrStart+0x80>
  104d4c:	04800044 	movi	r18,1
  104d50:	1c800b2e 	bgeu	r3,r18,104d80 <OSTmrStart+0xa8>
  104d54:	00001106 	br	104d9c <OSTmrStart+0xc4>
  104d58:	008000c4 	movi	r2,3
  104d5c:	1880141e 	bne	r3,r2,104db0 <OSTmrStart+0xd8>
  104d60:	8009883a 	mov	r4,r16
  104d64:	01048bc0 	call	1048bc <OSTmr_Unlink>
  104d68:	000b883a 	mov	r5,zero
  104d6c:	8009883a 	mov	r4,r16
  104d70:	010481c0 	call	10481c <OSTmr_Link>
  104d74:	0104aac0 	call	104aac <OSTmr_Unlock>
  104d78:	00c00044 	movi	r3,1
  104d7c:	00000506 	br	104d94 <OSTmrStart+0xbc>
  104d80:	8009883a 	mov	r4,r16
  104d84:	000b883a 	mov	r5,zero
  104d88:	010481c0 	call	10481c <OSTmr_Link>
  104d8c:	0104aac0 	call	104aac <OSTmr_Unlock>
  104d90:	9007883a 	mov	r3,r18
  104d94:	88000005 	stb	zero,0(r17)
  104d98:	00000906 	br	104dc0 <OSTmrStart+0xe8>
  104d9c:	0104aac0 	call	104aac <OSTmr_Unlock>
  104da0:	0007883a 	mov	r3,zero
  104da4:	00bfe1c4 	movi	r2,-121
  104da8:	88800005 	stb	r2,0(r17)
  104dac:	00000406 	br	104dc0 <OSTmrStart+0xe8>
  104db0:	0104aac0 	call	104aac <OSTmr_Unlock>
  104db4:	00bfe344 	movi	r2,-115
  104db8:	88800005 	stb	r2,0(r17)
  104dbc:	0007883a 	mov	r3,zero
  104dc0:	1805883a 	mov	r2,r3
  104dc4:	dfc00317 	ldw	ra,12(sp)
  104dc8:	dc800217 	ldw	r18,8(sp)
  104dcc:	dc400117 	ldw	r17,4(sp)
  104dd0:	dc000017 	ldw	r16,0(sp)
  104dd4:	dec00404 	addi	sp,sp,16
  104dd8:	f800283a 	ret

00104ddc <OSTmrStateGet>:
  104ddc:	defffd04 	addi	sp,sp,-12
  104de0:	dc000115 	stw	r16,4(sp)
  104de4:	dfc00215 	stw	ra,8(sp)
  104de8:	2021883a 	mov	r16,r4
  104dec:	2800021e 	bne	r5,zero,104df8 <OSTmrStateGet+0x1c>
  104df0:	0021883a 	mov	r16,zero
  104df4:	00001e06 	br	104e70 <OSTmrStateGet+0x94>
  104df8:	2000021e 	bne	r4,zero,104e04 <OSTmrStateGet+0x28>
  104dfc:	00bfe284 	movi	r2,-118
  104e00:	00000506 	br	104e18 <OSTmrStateGet+0x3c>
  104e04:	20c00003 	ldbu	r3,0(r4)
  104e08:	00801904 	movi	r2,100
  104e0c:	18800426 	beq	r3,r2,104e20 <OSTmrStateGet+0x44>
  104e10:	0021883a 	mov	r16,zero
  104e14:	00bfe244 	movi	r2,-119
  104e18:	28800005 	stb	r2,0(r5)
  104e1c:	00001406 	br	104e70 <OSTmrStateGet+0x94>
  104e20:	00800474 	movhi	r2,17
  104e24:	10adff04 	addi	r2,r2,-18436
  104e28:	10800003 	ldbu	r2,0(r2)
  104e2c:	10000326 	beq	r2,zero,104e3c <OSTmrStateGet+0x60>
  104e30:	0021883a 	mov	r16,zero
  104e34:	00bfe2c4 	movi	r2,-117
  104e38:	003ff706 	br	104e18 <OSTmrStateGet+0x3c>
  104e3c:	d9400015 	stw	r5,0(sp)
  104e40:	0104a800 	call	104a80 <OSTmr_Lock>
  104e44:	81000c43 	ldbu	r4,49(r16)
  104e48:	008000c4 	movi	r2,3
  104e4c:	d9400017 	ldw	r5,0(sp)
  104e50:	20c03fcc 	andi	r3,r4,255
  104e54:	10c00236 	bltu	r2,r3,104e60 <OSTmrStateGet+0x84>
  104e58:	28000005 	stb	zero,0(r5)
  104e5c:	00000206 	br	104e68 <OSTmrStateGet+0x8c>
  104e60:	00bfe344 	movi	r2,-115
  104e64:	28800005 	stb	r2,0(r5)
  104e68:	24003fcc 	andi	r16,r4,255
  104e6c:	0104aac0 	call	104aac <OSTmr_Unlock>
  104e70:	8005883a 	mov	r2,r16
  104e74:	dfc00217 	ldw	ra,8(sp)
  104e78:	dc000117 	ldw	r16,4(sp)
  104e7c:	dec00304 	addi	sp,sp,12
  104e80:	f800283a 	ret

00104e84 <OSTmrRemainGet>:
  104e84:	defffc04 	addi	sp,sp,-16
  104e88:	dc000115 	stw	r16,4(sp)
  104e8c:	dfc00315 	stw	ra,12(sp)
  104e90:	dc400215 	stw	r17,8(sp)
  104e94:	2821883a 	mov	r16,r5
  104e98:	28003926 	beq	r5,zero,104f80 <OSTmrRemainGet+0xfc>
  104e9c:	2000031e 	bne	r4,zero,104eac <OSTmrRemainGet+0x28>
  104ea0:	0023883a 	mov	r17,zero
  104ea4:	00bfe284 	movi	r2,-118
  104ea8:	00003006 	br	104f6c <OSTmrRemainGet+0xe8>
  104eac:	20c00003 	ldbu	r3,0(r4)
  104eb0:	00801904 	movi	r2,100
  104eb4:	18800326 	beq	r3,r2,104ec4 <OSTmrRemainGet+0x40>
  104eb8:	0023883a 	mov	r17,zero
  104ebc:	00bfe244 	movi	r2,-119
  104ec0:	00002a06 	br	104f6c <OSTmrRemainGet+0xe8>
  104ec4:	00800474 	movhi	r2,17
  104ec8:	10adff04 	addi	r2,r2,-18436
  104ecc:	10800003 	ldbu	r2,0(r2)
  104ed0:	10000326 	beq	r2,zero,104ee0 <OSTmrRemainGet+0x5c>
  104ed4:	0023883a 	mov	r17,zero
  104ed8:	00bfe2c4 	movi	r2,-117
  104edc:	00002306 	br	104f6c <OSTmrRemainGet+0xe8>
  104ee0:	d9000015 	stw	r4,0(sp)
  104ee4:	0104a800 	call	104a80 <OSTmr_Lock>
  104ee8:	d9000017 	ldw	r4,0(sp)
  104eec:	00800044 	movi	r2,1
  104ef0:	20c00c43 	ldbu	r3,49(r4)
  104ef4:	18800b26 	beq	r3,r2,104f24 <OSTmrRemainGet+0xa0>
  104ef8:	18801936 	bltu	r3,r2,104f60 <OSTmrRemainGet+0xdc>
  104efc:	00800084 	movi	r2,2
  104f00:	18801326 	beq	r3,r2,104f50 <OSTmrRemainGet+0xcc>
  104f04:	008000c4 	movi	r2,3
  104f08:	18801a1e 	bne	r3,r2,104f74 <OSTmrRemainGet+0xf0>
  104f0c:	00c00474 	movhi	r3,17
  104f10:	18ee0104 	addi	r3,r3,-18428
  104f14:	20800517 	ldw	r2,20(r4)
  104f18:	18c00017 	ldw	r3,0(r3)
  104f1c:	10e3c83a 	sub	r17,r2,r3
  104f20:	00000906 	br	104f48 <OSTmrRemainGet+0xc4>
  104f24:	20c00c03 	ldbu	r3,48(r4)
  104f28:	00800084 	movi	r2,2
  104f2c:	21400617 	ldw	r5,24(r4)
  104f30:	1880041e 	bne	r3,r2,104f44 <OSTmrRemainGet+0xc0>
  104f34:	2823883a 	mov	r17,r5
  104f38:	2800031e 	bne	r5,zero,104f48 <OSTmrRemainGet+0xc4>
  104f3c:	24400717 	ldw	r17,28(r4)
  104f40:	00000106 	br	104f48 <OSTmrRemainGet+0xc4>
  104f44:	2823883a 	mov	r17,r5
  104f48:	0104aac0 	call	104aac <OSTmr_Unlock>
  104f4c:	00000206 	br	104f58 <OSTmrRemainGet+0xd4>
  104f50:	0104aac0 	call	104aac <OSTmr_Unlock>
  104f54:	0023883a 	mov	r17,zero
  104f58:	80000005 	stb	zero,0(r16)
  104f5c:	00000906 	br	104f84 <OSTmrRemainGet+0x100>
  104f60:	0104aac0 	call	104aac <OSTmr_Unlock>
  104f64:	0023883a 	mov	r17,zero
  104f68:	00bfe1c4 	movi	r2,-121
  104f6c:	80800005 	stb	r2,0(r16)
  104f70:	00000406 	br	104f84 <OSTmrRemainGet+0x100>
  104f74:	0104aac0 	call	104aac <OSTmr_Unlock>
  104f78:	00bfe344 	movi	r2,-115
  104f7c:	80800005 	stb	r2,0(r16)
  104f80:	0023883a 	mov	r17,zero
  104f84:	8805883a 	mov	r2,r17
  104f88:	dfc00317 	ldw	ra,12(sp)
  104f8c:	dc400217 	ldw	r17,8(sp)
  104f90:	dc000117 	ldw	r16,4(sp)
  104f94:	dec00404 	addi	sp,sp,16
  104f98:	f800283a 	ret

00104f9c <OSTmrDel>:
  104f9c:	defffc04 	addi	sp,sp,-16
  104fa0:	dc400115 	stw	r17,4(sp)
  104fa4:	dc000015 	stw	r16,0(sp)
  104fa8:	dfc00315 	stw	ra,12(sp)
  104fac:	dc800215 	stw	r18,8(sp)
  104fb0:	2823883a 	mov	r17,r5
  104fb4:	2021883a 	mov	r16,r4
  104fb8:	28002f26 	beq	r5,zero,105078 <OSTmrDel+0xdc>
  104fbc:	2000031e 	bne	r4,zero,104fcc <OSTmrDel+0x30>
  104fc0:	0007883a 	mov	r3,zero
  104fc4:	00bfe284 	movi	r2,-118
  104fc8:	00002606 	br	105064 <OSTmrDel+0xc8>
  104fcc:	20c00003 	ldbu	r3,0(r4)
  104fd0:	00801904 	movi	r2,100
  104fd4:	18800326 	beq	r3,r2,104fe4 <OSTmrDel+0x48>
  104fd8:	0007883a 	mov	r3,zero
  104fdc:	00bfe244 	movi	r2,-119
  104fe0:	00002006 	br	105064 <OSTmrDel+0xc8>
  104fe4:	00800474 	movhi	r2,17
  104fe8:	10adff04 	addi	r2,r2,-18436
  104fec:	10800003 	ldbu	r2,0(r2)
  104ff0:	10000326 	beq	r2,zero,105000 <OSTmrDel+0x64>
  104ff4:	0007883a 	mov	r3,zero
  104ff8:	00bfe2c4 	movi	r2,-117
  104ffc:	00001906 	br	105064 <OSTmrDel+0xc8>
  105000:	0104a800 	call	104a80 <OSTmr_Lock>
  105004:	80c00c43 	ldbu	r3,49(r16)
  105008:	00800084 	movi	r2,2
  10500c:	10c00336 	bltu	r2,r3,10501c <OSTmrDel+0x80>
  105010:	04800044 	movi	r18,1
  105014:	1c800a2e 	bgeu	r3,r18,105040 <OSTmrDel+0xa4>
  105018:	00000f06 	br	105058 <OSTmrDel+0xbc>
  10501c:	008000c4 	movi	r2,3
  105020:	1880121e 	bne	r3,r2,10506c <OSTmrDel+0xd0>
  105024:	8009883a 	mov	r4,r16
  105028:	01048bc0 	call	1048bc <OSTmr_Unlink>
  10502c:	8009883a 	mov	r4,r16
  105030:	01047b40 	call	1047b4 <OSTmr_Free>
  105034:	0104aac0 	call	104aac <OSTmr_Unlock>
  105038:	00c00044 	movi	r3,1
  10503c:	00000406 	br	105050 <OSTmrDel+0xb4>
  105040:	8009883a 	mov	r4,r16
  105044:	01047b40 	call	1047b4 <OSTmr_Free>
  105048:	0104aac0 	call	104aac <OSTmr_Unlock>
  10504c:	9007883a 	mov	r3,r18
  105050:	88000005 	stb	zero,0(r17)
  105054:	00000906 	br	10507c <OSTmrDel+0xe0>
  105058:	0104aac0 	call	104aac <OSTmr_Unlock>
  10505c:	0007883a 	mov	r3,zero
  105060:	00bfe1c4 	movi	r2,-121
  105064:	88800005 	stb	r2,0(r17)
  105068:	00000406 	br	10507c <OSTmrDel+0xe0>
  10506c:	0104aac0 	call	104aac <OSTmr_Unlock>
  105070:	00bfe344 	movi	r2,-115
  105074:	88800005 	stb	r2,0(r17)
  105078:	0007883a 	mov	r3,zero
  10507c:	1805883a 	mov	r2,r3
  105080:	dfc00317 	ldw	ra,12(sp)
  105084:	dc800217 	ldw	r18,8(sp)
  105088:	dc400117 	ldw	r17,4(sp)
  10508c:	dc000017 	ldw	r16,0(sp)
  105090:	dec00404 	addi	sp,sp,16
  105094:	f800283a 	ret

00105098 <OSTmrSignal>:
  105098:	00800474 	movhi	r2,17
  10509c:	10adef04 	addi	r2,r2,-18500
  1050a0:	11000017 	ldw	r4,0(r2)
  1050a4:	deffff04 	addi	sp,sp,-4
  1050a8:	dfc00015 	stw	ra,0(sp)
  1050ac:	01034c40 	call	1034c4 <OSSemPost>
  1050b0:	10803fcc 	andi	r2,r2,255
  1050b4:	dfc00017 	ldw	ra,0(sp)
  1050b8:	dec00104 	addi	sp,sp,4
  1050bc:	f800283a 	ret

001050c0 <OSTmrNameGet>:
  1050c0:	defffc04 	addi	sp,sp,-16
  1050c4:	dc800215 	stw	r18,8(sp)
  1050c8:	dc400115 	stw	r17,4(sp)
  1050cc:	dc000015 	stw	r16,0(sp)
  1050d0:	dfc00315 	stw	ra,12(sp)
  1050d4:	3023883a 	mov	r17,r6
  1050d8:	2021883a 	mov	r16,r4
  1050dc:	2825883a 	mov	r18,r5
  1050e0:	30002a26 	beq	r6,zero,10518c <OSTmrNameGet+0xcc>
  1050e4:	2800031e 	bne	r5,zero,1050f4 <OSTmrNameGet+0x34>
  1050e8:	0007883a 	mov	r3,zero
  1050ec:	00bfe204 	movi	r2,-120
  1050f0:	00002106 	br	105178 <OSTmrNameGet+0xb8>
  1050f4:	2000031e 	bne	r4,zero,105104 <OSTmrNameGet+0x44>
  1050f8:	0007883a 	mov	r3,zero
  1050fc:	00bfe284 	movi	r2,-118
  105100:	00001d06 	br	105178 <OSTmrNameGet+0xb8>
  105104:	20c00003 	ldbu	r3,0(r4)
  105108:	00801904 	movi	r2,100
  10510c:	18800326 	beq	r3,r2,10511c <OSTmrNameGet+0x5c>
  105110:	0007883a 	mov	r3,zero
  105114:	00bfe244 	movi	r2,-119
  105118:	00001706 	br	105178 <OSTmrNameGet+0xb8>
  10511c:	00800474 	movhi	r2,17
  105120:	10adff04 	addi	r2,r2,-18436
  105124:	10800003 	ldbu	r2,0(r2)
  105128:	10000326 	beq	r2,zero,105138 <OSTmrNameGet+0x78>
  10512c:	0007883a 	mov	r3,zero
  105130:	00800444 	movi	r2,17
  105134:	00001006 	br	105178 <OSTmrNameGet+0xb8>
  105138:	0104a800 	call	104a80 <OSTmr_Lock>
  10513c:	80c00c43 	ldbu	r3,49(r16)
  105140:	18000a26 	beq	r3,zero,10516c <OSTmrNameGet+0xac>
  105144:	008000c4 	movi	r2,3
  105148:	10c00d36 	bltu	r2,r3,105180 <OSTmrNameGet+0xc0>
  10514c:	81400804 	addi	r5,r16,32
  105150:	9009883a 	mov	r4,r18
  105154:	010081c0 	call	10081c <OS_StrCopy>
  105158:	1021883a 	mov	r16,r2
  10515c:	0104aac0 	call	104aac <OSTmr_Unlock>
  105160:	80c03fcc 	andi	r3,r16,255
  105164:	88000005 	stb	zero,0(r17)
  105168:	00000906 	br	105190 <OSTmrNameGet+0xd0>
  10516c:	0104aac0 	call	104aac <OSTmr_Unlock>
  105170:	0007883a 	mov	r3,zero
  105174:	00bfe1c4 	movi	r2,-121
  105178:	88800005 	stb	r2,0(r17)
  10517c:	00000406 	br	105190 <OSTmrNameGet+0xd0>
  105180:	0104aac0 	call	104aac <OSTmr_Unlock>
  105184:	00bfe344 	movi	r2,-115
  105188:	88800005 	stb	r2,0(r17)
  10518c:	0007883a 	mov	r3,zero
  105190:	1805883a 	mov	r2,r3
  105194:	dfc00317 	ldw	ra,12(sp)
  105198:	dc800217 	ldw	r18,8(sp)
  10519c:	dc400117 	ldw	r17,4(sp)
  1051a0:	dc000017 	ldw	r16,0(sp)
  1051a4:	dec00404 	addi	sp,sp,16
  1051a8:	f800283a 	ret

001051ac <OSTmrCreate>:
  1051ac:	defff804 	addi	sp,sp,-32
  1051b0:	dc000015 	stw	r16,0(sp)
  1051b4:	dc000a17 	ldw	r16,40(sp)
  1051b8:	dd400515 	stw	r21,20(sp)
  1051bc:	dd000415 	stw	r20,16(sp)
  1051c0:	dcc00315 	stw	r19,12(sp)
  1051c4:	dc800215 	stw	r18,8(sp)
  1051c8:	dc400115 	stw	r17,4(sp)
  1051cc:	dfc00715 	stw	ra,28(sp)
  1051d0:	dd800615 	stw	r22,24(sp)
  1051d4:	2027883a 	mov	r19,r4
  1051d8:	2829883a 	mov	r20,r5
  1051dc:	382b883a 	mov	r21,r7
  1051e0:	3025883a 	mov	r18,r6
  1051e4:	dc400917 	ldw	r17,36(sp)
  1051e8:	8000021e 	bne	r16,zero,1051f4 <OSTmrCreate+0x48>
  1051ec:	002d883a 	mov	r22,zero
  1051f0:	00004a06 	br	10531c <OSTmrCreate+0x170>
  1051f4:	30c03fcc 	andi	r3,r6,255
  1051f8:	00800044 	movi	r2,1
  1051fc:	18800626 	beq	r3,r2,105218 <OSTmrCreate+0x6c>
  105200:	00800084 	movi	r2,2
  105204:	1880091e 	bne	r3,r2,10522c <OSTmrCreate+0x80>
  105208:	28000b1e 	bne	r5,zero,105238 <OSTmrCreate+0x8c>
  10520c:	002d883a 	mov	r22,zero
  105210:	00bfe0c4 	movi	r2,-125
  105214:	00000306 	br	105224 <OSTmrCreate+0x78>
  105218:	2000071e 	bne	r4,zero,105238 <OSTmrCreate+0x8c>
  10521c:	002d883a 	mov	r22,zero
  105220:	00bfe084 	movi	r2,-126
  105224:	80800005 	stb	r2,0(r16)
  105228:	00003c06 	br	10531c <OSTmrCreate+0x170>
  10522c:	002d883a 	mov	r22,zero
  105230:	00bfe104 	movi	r2,-124
  105234:	003ffb06 	br	105224 <OSTmrCreate+0x78>
  105238:	00800474 	movhi	r2,17
  10523c:	10adff04 	addi	r2,r2,-18436
  105240:	10800003 	ldbu	r2,0(r2)
  105244:	10000326 	beq	r2,zero,105254 <OSTmrCreate+0xa8>
  105248:	002d883a 	mov	r22,zero
  10524c:	00bfe2c4 	movi	r2,-117
  105250:	003ff406 	br	105224 <OSTmrCreate+0x78>
  105254:	0104a800 	call	104a80 <OSTmr_Lock>
  105258:	01c00474 	movhi	r7,17
  10525c:	39eded04 	addi	r7,r7,-18508
  105260:	3d800017 	ldw	r22,0(r7)
  105264:	b0001826 	beq	r22,zero,1052c8 <OSTmrCreate+0x11c>
  105268:	01400474 	movhi	r5,17
  10526c:	296df204 	addi	r5,r5,-18488
  105270:	01800474 	movhi	r6,17
  105274:	31adf604 	addi	r6,r6,-18472
  105278:	2880000b 	ldhu	r2,0(r5)
  10527c:	30c0000b 	ldhu	r3,0(r6)
  105280:	b1000317 	ldw	r4,12(r22)
  105284:	10800044 	addi	r2,r2,1
  105288:	18ffffc4 	addi	r3,r3,-1
  10528c:	2880000d 	sth	r2,0(r5)
  105290:	39000015 	stw	r4,0(r7)
  105294:	30c0000d 	sth	r3,0(r6)
  105298:	00800044 	movi	r2,1
  10529c:	b0800c45 	stb	r2,49(r22)
  1052a0:	b4800c05 	stb	r18,48(r22)
  1052a4:	d8800817 	ldw	r2,32(sp)
  1052a8:	b4c00615 	stw	r19,24(r22)
  1052ac:	b5000715 	stw	r20,28(r22)
  1052b0:	b5400115 	stw	r21,4(r22)
  1052b4:	b0800215 	stw	r2,8(r22)
  1052b8:	b0000315 	stw	zero,12(r22)
  1052bc:	b0000415 	stw	zero,16(r22)
  1052c0:	8800041e 	bne	r17,zero,1052d4 <OSTmrCreate+0x128>
  1052c4:	00001306 	br	105314 <OSTmrCreate+0x168>
  1052c8:	0104aac0 	call	104aac <OSTmr_Unlock>
  1052cc:	00bfe184 	movi	r2,-122
  1052d0:	003fd406 	br	105224 <OSTmrCreate+0x78>
  1052d4:	8809883a 	mov	r4,r17
  1052d8:	01008480 	call	100848 <OS_StrLen>
  1052dc:	10803fcc 	andi	r2,r2,255
  1052e0:	00c003c4 	movi	r3,15
  1052e4:	18800436 	bltu	r3,r2,1052f8 <OSTmrCreate+0x14c>
  1052e8:	880b883a 	mov	r5,r17
  1052ec:	b1000804 	addi	r4,r22,32
  1052f0:	010081c0 	call	10081c <OS_StrCopy>
  1052f4:	00000706 	br	105314 <OSTmrCreate+0x168>
  1052f8:	008008c4 	movi	r2,35
  1052fc:	b0800805 	stb	r2,32(r22)
  105300:	b0000845 	stb	zero,33(r22)
  105304:	00bfe304 	movi	r2,-116
  105308:	80800005 	stb	r2,0(r16)
  10530c:	0104aac0 	call	104aac <OSTmr_Unlock>
  105310:	00000206 	br	10531c <OSTmrCreate+0x170>
  105314:	0104aac0 	call	104aac <OSTmr_Unlock>
  105318:	80000005 	stb	zero,0(r16)
  10531c:	b005883a 	mov	r2,r22
  105320:	dfc00717 	ldw	ra,28(sp)
  105324:	dd800617 	ldw	r22,24(sp)
  105328:	dd400517 	ldw	r21,20(sp)
  10532c:	dd000417 	ldw	r20,16(sp)
  105330:	dcc00317 	ldw	r19,12(sp)
  105334:	dc800217 	ldw	r18,8(sp)
  105338:	dc400117 	ldw	r17,4(sp)
  10533c:	dc000017 	ldw	r16,0(sp)
  105340:	dec00804 	addi	sp,sp,32
  105344:	f800283a 	ret

00105348 <alt_dev_reg>:
  105348:	01400474 	movhi	r5,17
  10534c:	29682304 	addi	r5,r5,-24436
  105350:	0105f4c1 	jmpi	105f4c <alt_dev_llist_insert>

00105354 <alt_sys_init>:
  105354:	defffe04 	addi	sp,sp,-8
  105358:	01c0fa04 	movi	r7,1000
  10535c:	01244014 	movui	r4,37120
  105360:	000b883a 	mov	r5,zero
  105364:	018001c4 	movi	r6,7
  105368:	dfc00115 	stw	ra,4(sp)
  10536c:	dc000015 	stw	r16,0(sp)
  105370:	0105b180 	call	105b18 <alt_avalon_timer_sc_init>
  105374:	00e42014 	movui	r3,36992
  105378:	00800474 	movhi	r2,17
  10537c:	10ae0704 	addi	r2,r2,-18404
  105380:	04000474 	movhi	r16,17
  105384:	84227c04 	addi	r16,r16,-30224
  105388:	10c00015 	stw	r3,0(r2)
  10538c:	00c0bef4 	movhi	r3,763
  105390:	18fc2004 	addi	r3,r3,-3968
  105394:	00800474 	movhi	r2,17
  105398:	10ae0804 	addi	r2,r2,-18400
  10539c:	8009883a 	mov	r4,r16
  1053a0:	000b883a 	mov	r5,zero
  1053a4:	01800144 	movi	r6,5
  1053a8:	10c00015 	stw	r3,0(r2)
  1053ac:	01055040 	call	105504 <altera_avalon_jtag_uart_init>
  1053b0:	813ff604 	addi	r4,r16,-40
  1053b4:	01053480 	call	105348 <alt_dev_reg>
  1053b8:	00c00044 	movi	r3,1
  1053bc:	00a40014 	movui	r2,36864
  1053c0:	10c00035 	stwio	r3,0(r2)
  1053c4:	04000474 	movhi	r16,17
  1053c8:	84268d04 	addi	r16,r16,-26060
  1053cc:	8009883a 	mov	r4,r16
  1053d0:	0105c1c0 	call	105c1c <alt_up_character_lcd_init>
  1053d4:	8009883a 	mov	r4,r16
  1053d8:	dfc00117 	ldw	ra,4(sp)
  1053dc:	dc000017 	ldw	r16,0(sp)
  1053e0:	dec00204 	addi	sp,sp,8
  1053e4:	01053481 	jmpi	105348 <alt_dev_reg>

001053e8 <alt_irq_init>:
  1053e8:	deffff04 	addi	sp,sp,-4
  1053ec:	dfc00015 	stw	ra,0(sp)
  1053f0:	01065840 	call	106584 <altera_nios2_qsys_irq_init>
  1053f4:	00800044 	movi	r2,1
  1053f8:	1001703a 	wrctl	status,r2
  1053fc:	dfc00017 	ldw	ra,0(sp)
  105400:	dec00104 	addi	sp,sp,4
  105404:	f800283a 	ret

00105408 <altera_avalon_jtag_uart_ioctl_fd>:
  105408:	21000017 	ldw	r4,0(r4)
  10540c:	21000a04 	addi	r4,r4,40
  105410:	01057381 	jmpi	105738 <altera_avalon_jtag_uart_ioctl>

00105414 <altera_avalon_jtag_uart_close_fd>:
  105414:	20800017 	ldw	r2,0(r4)
  105418:	21400217 	ldw	r5,8(r4)
  10541c:	11000a04 	addi	r4,r2,40
  105420:	01054441 	jmpi	105444 <altera_avalon_jtag_uart_close>

00105424 <altera_avalon_jtag_uart_write_fd>:
  105424:	20800017 	ldw	r2,0(r4)
  105428:	21c00217 	ldw	r7,8(r4)
  10542c:	11000a04 	addi	r4,r2,40
  105430:	01059601 	jmpi	105960 <altera_avalon_jtag_uart_write>

00105434 <altera_avalon_jtag_uart_read_fd>:
  105434:	20800017 	ldw	r2,0(r4)
  105438:	21c00217 	ldw	r7,8(r4)
  10543c:	11000a04 	addi	r4,r2,40
  105440:	01057b41 	jmpi	1057b4 <altera_avalon_jtag_uart_read>

00105444 <altera_avalon_jtag_uart_close>:
  105444:	21800f17 	ldw	r6,60(r4)
  105448:	2950000c 	andi	r5,r5,16384
  10544c:	280b003a 	cmpeq	r5,r5,zero
  105450:	00000306 	br	105460 <altera_avalon_jtag_uart_close+0x1c>
  105454:	2800021e 	bne	r5,zero,105460 <altera_avalon_jtag_uart_close+0x1c>
  105458:	00bffd44 	movi	r2,-11
  10545c:	f800283a 	ret
  105460:	20801017 	ldw	r2,64(r4)
  105464:	11800326 	beq	r2,r6,105474 <altera_avalon_jtag_uart_close+0x30>
  105468:	20c00917 	ldw	r3,36(r4)
  10546c:	20800117 	ldw	r2,4(r4)
  105470:	18bff836 	bltu	r3,r2,105454 <altera_avalon_jtag_uart_close+0x10>
  105474:	0005883a 	mov	r2,zero
  105478:	f800283a 	ret

0010547c <altera_avalon_jtag_uart_timeout>:
  10547c:	20c00017 	ldw	r3,0(r4)
  105480:	defffe04 	addi	sp,sp,-8
  105484:	dfc00115 	stw	ra,4(sp)
  105488:	18800137 	ldwio	r2,4(r3)
  10548c:	1081000c 	andi	r2,r2,1024
  105490:	10000526 	beq	r2,zero,1054a8 <altera_avalon_jtag_uart_timeout+0x2c>
  105494:	20800817 	ldw	r2,32(r4)
  105498:	10810014 	ori	r2,r2,1024
  10549c:	18800135 	stwio	r2,4(r3)
  1054a0:	20000915 	stw	zero,36(r4)
  1054a4:	00001106 	br	1054ec <altera_avalon_jtag_uart_timeout+0x70>
  1054a8:	20c00917 	ldw	r3,36(r4)
  1054ac:	00a00034 	movhi	r2,32768
  1054b0:	10bfff04 	addi	r2,r2,-4
  1054b4:	19400044 	addi	r5,r3,1
  1054b8:	10c00c36 	bltu	r2,r3,1054ec <altera_avalon_jtag_uart_timeout+0x70>
  1054bc:	20800117 	ldw	r2,4(r4)
  1054c0:	21400915 	stw	r5,36(r4)
  1054c4:	28800936 	bltu	r5,r2,1054ec <altera_avalon_jtag_uart_timeout+0x70>
  1054c8:	00800474 	movhi	r2,17
  1054cc:	10adf004 	addi	r2,r2,-18496
  1054d0:	10800003 	ldbu	r2,0(r2)
  1054d4:	01400104 	movi	r5,4
  1054d8:	01800044 	movi	r6,1
  1054dc:	d80f883a 	mov	r7,sp
  1054e0:	21000c17 	ldw	r4,48(r4)
  1054e4:	10000126 	beq	r2,zero,1054ec <altera_avalon_jtag_uart_timeout+0x70>
  1054e8:	01020780 	call	102078 <OSFlagPost>
  1054ec:	00800474 	movhi	r2,17
  1054f0:	10ae0b04 	addi	r2,r2,-18388
  1054f4:	10800017 	ldw	r2,0(r2)
  1054f8:	dfc00117 	ldw	ra,4(sp)
  1054fc:	dec00204 	addi	sp,sp,8
  105500:	f800283a 	ret

00105504 <altera_avalon_jtag_uart_init>:
  105504:	defff904 	addi	sp,sp,-28
  105508:	dcc00515 	stw	r19,20(sp)
  10550c:	dc800415 	stw	r18,16(sp)
  105510:	2027883a 	mov	r19,r4
  105514:	2825883a 	mov	r18,r5
  105518:	0009883a 	mov	r4,zero
  10551c:	d9400104 	addi	r5,sp,4
  105520:	dfc00615 	stw	ra,24(sp)
  105524:	dc400315 	stw	r17,12(sp)
  105528:	dc000215 	stw	r16,8(sp)
  10552c:	3023883a 	mov	r17,r6
  105530:	04000044 	movi	r16,1
  105534:	01019d00 	call	1019d0 <OSFlagCreate>
  105538:	98800c15 	stw	r2,48(r19)
  10553c:	8009883a 	mov	r4,r16
  105540:	01030900 	call	103090 <OSSemCreate>
  105544:	98800a15 	stw	r2,40(r19)
  105548:	8009883a 	mov	r4,r16
  10554c:	01030900 	call	103090 <OSSemCreate>
  105550:	98c00017 	ldw	r3,0(r19)
  105554:	98800b15 	stw	r2,44(r19)
  105558:	9c000815 	stw	r16,32(r19)
  10555c:	1c000135 	stwio	r16,4(r3)
  105560:	9009883a 	mov	r4,r18
  105564:	880b883a 	mov	r5,r17
  105568:	01800434 	movhi	r6,16
  10556c:	31957304 	addi	r6,r6,21964
  105570:	980f883a 	mov	r7,r19
  105574:	d8000015 	stw	zero,0(sp)
  105578:	01061480 	call	106148 <alt_ic_isr_register>
  10557c:	00800474 	movhi	r2,17
  105580:	10ae0b04 	addi	r2,r2,-18388
  105584:	11400017 	ldw	r5,0(r2)
  105588:	98000915 	stw	zero,36(r19)
  10558c:	99000204 	addi	r4,r19,8
  105590:	01800434 	movhi	r6,16
  105594:	31951f04 	addi	r6,r6,21628
  105598:	980f883a 	mov	r7,r19
  10559c:	0105df40 	call	105df4 <alt_alarm_start>
  1055a0:	1000030e 	bge	r2,zero,1055b0 <altera_avalon_jtag_uart_init+0xac>
  1055a4:	00a00034 	movhi	r2,32768
  1055a8:	10bfffc4 	addi	r2,r2,-1
  1055ac:	98800115 	stw	r2,4(r19)
  1055b0:	dfc00617 	ldw	ra,24(sp)
  1055b4:	dcc00517 	ldw	r19,20(sp)
  1055b8:	dc800417 	ldw	r18,16(sp)
  1055bc:	dc400317 	ldw	r17,12(sp)
  1055c0:	dc000217 	ldw	r16,8(sp)
  1055c4:	dec00704 	addi	sp,sp,28
  1055c8:	f800283a 	ret

001055cc <altera_avalon_jtag_uart_irq>:
  1055cc:	defff904 	addi	sp,sp,-28
  1055d0:	dd000515 	stw	r20,20(sp)
  1055d4:	25000017 	ldw	r20,0(r4)
  1055d8:	dc000115 	stw	r16,4(sp)
  1055dc:	dfc00615 	stw	ra,24(sp)
  1055e0:	dcc00415 	stw	r19,16(sp)
  1055e4:	dc800315 	stw	r18,12(sp)
  1055e8:	dc400215 	stw	r17,8(sp)
  1055ec:	2021883a 	mov	r16,r4
  1055f0:	a4800104 	addi	r18,r20,4
  1055f4:	94c00037 	ldwio	r19,0(r18)
  1055f8:	9880c00c 	andi	r2,r19,768
  1055fc:	10004626 	beq	r2,zero,105718 <altera_avalon_jtag_uart_irq+0x14c>
  105600:	9880400c 	andi	r2,r19,256
  105604:	10002226 	beq	r2,zero,105690 <altera_avalon_jtag_uart_irq+0xc4>
  105608:	04400074 	movhi	r17,1
  10560c:	80800d17 	ldw	r2,52(r16)
  105610:	80c00e17 	ldw	r3,56(r16)
  105614:	10800044 	addi	r2,r2,1
  105618:	1081ffcc 	andi	r2,r2,2047
  10561c:	10c01426 	beq	r2,r3,105670 <altera_avalon_jtag_uart_irq+0xa4>
  105620:	a4400037 	ldwio	r17,0(r20)
  105624:	01400044 	movi	r5,1
  105628:	88a0000c 	andi	r2,r17,32768
  10562c:	280d883a 	mov	r6,r5
  105630:	d80f883a 	mov	r7,sp
  105634:	10000e26 	beq	r2,zero,105670 <altera_avalon_jtag_uart_irq+0xa4>
  105638:	80800d17 	ldw	r2,52(r16)
  10563c:	80c00d17 	ldw	r3,52(r16)
  105640:	81000c17 	ldw	r4,48(r16)
  105644:	1405883a 	add	r2,r2,r16
  105648:	14401105 	stb	r17,68(r2)
  10564c:	00800474 	movhi	r2,17
  105650:	10adf004 	addi	r2,r2,-18496
  105654:	10800003 	ldbu	r2,0(r2)
  105658:	1947883a 	add	r3,r3,r5
  10565c:	18c1ffcc 	andi	r3,r3,2047
  105660:	80c00d15 	stw	r3,52(r16)
  105664:	103fe926 	beq	r2,zero,10560c <altera_avalon_jtag_uart_irq+0x40>
  105668:	01020780 	call	102078 <OSFlagPost>
  10566c:	003fe706 	br	10560c <altera_avalon_jtag_uart_irq+0x40>
  105670:	88bfffec 	andhi	r2,r17,65535
  105674:	10000626 	beq	r2,zero,105690 <altera_avalon_jtag_uart_irq+0xc4>
  105678:	80800817 	ldw	r2,32(r16)
  10567c:	00ffff84 	movi	r3,-2
  105680:	10c4703a 	and	r2,r2,r3
  105684:	80800815 	stw	r2,32(r16)
  105688:	90800035 	stwio	r2,0(r18)
  10568c:	90800037 	ldwio	r2,0(r18)
  105690:	9880800c 	andi	r2,r19,512
  105694:	103fd626 	beq	r2,zero,1055f0 <altera_avalon_jtag_uart_irq+0x24>
  105698:	9822d43a 	srli	r17,r19,16
  10569c:	00001206 	br	1056e8 <altera_avalon_jtag_uart_irq+0x11c>
  1056a0:	80801017 	ldw	r2,64(r16)
  1056a4:	1405883a 	add	r2,r2,r16
  1056a8:	10821107 	ldb	r2,2116(r2)
  1056ac:	a0800035 	stwio	r2,0(r20)
  1056b0:	80c01017 	ldw	r3,64(r16)
  1056b4:	00800474 	movhi	r2,17
  1056b8:	10adf004 	addi	r2,r2,-18496
  1056bc:	10800003 	ldbu	r2,0(r2)
  1056c0:	18c00044 	addi	r3,r3,1
  1056c4:	18c1ffcc 	andi	r3,r3,2047
  1056c8:	01400084 	movi	r5,2
  1056cc:	01800044 	movi	r6,1
  1056d0:	d80f883a 	mov	r7,sp
  1056d4:	8c7fffc4 	addi	r17,r17,-1
  1056d8:	80c01015 	stw	r3,64(r16)
  1056dc:	81000c17 	ldw	r4,48(r16)
  1056e0:	10000126 	beq	r2,zero,1056e8 <altera_avalon_jtag_uart_irq+0x11c>
  1056e4:	01020780 	call	102078 <OSFlagPost>
  1056e8:	883fc126 	beq	r17,zero,1055f0 <altera_avalon_jtag_uart_irq+0x24>
  1056ec:	80c01017 	ldw	r3,64(r16)
  1056f0:	80800f17 	ldw	r2,60(r16)
  1056f4:	18bfea1e 	bne	r3,r2,1056a0 <altera_avalon_jtag_uart_irq+0xd4>
  1056f8:	80800817 	ldw	r2,32(r16)
  1056fc:	81000017 	ldw	r4,0(r16)
  105700:	00ffff44 	movi	r3,-3
  105704:	10c4703a 	and	r2,r2,r3
  105708:	80800815 	stw	r2,32(r16)
  10570c:	20800135 	stwio	r2,4(r4)
  105710:	90800037 	ldwio	r2,0(r18)
  105714:	003fb606 	br	1055f0 <altera_avalon_jtag_uart_irq+0x24>
  105718:	dfc00617 	ldw	ra,24(sp)
  10571c:	dd000517 	ldw	r20,20(sp)
  105720:	dcc00417 	ldw	r19,16(sp)
  105724:	dc800317 	ldw	r18,12(sp)
  105728:	dc400217 	ldw	r17,8(sp)
  10572c:	dc000117 	ldw	r16,4(sp)
  105730:	dec00704 	addi	sp,sp,28
  105734:	f800283a 	ret

00105738 <altera_avalon_jtag_uart_ioctl>:
  105738:	009a8044 	movi	r2,27137
  10573c:	200f883a 	mov	r7,r4
  105740:	28800326 	beq	r5,r2,105750 <altera_avalon_jtag_uart_ioctl+0x18>
  105744:	009a8084 	movi	r2,27138
  105748:	2880171e 	bne	r5,r2,1057a8 <altera_avalon_jtag_uart_ioctl+0x70>
  10574c:	00000d06 	br	105784 <altera_avalon_jtag_uart_ioctl+0x4c>
  105750:	20c00117 	ldw	r3,4(r4)
  105754:	00a00034 	movhi	r2,32768
  105758:	10bfffc4 	addi	r2,r2,-1
  10575c:	18801226 	beq	r3,r2,1057a8 <altera_avalon_jtag_uart_ioctl+0x70>
  105760:	31800017 	ldw	r6,0(r6)
  105764:	10bfff44 	addi	r2,r2,-3
  105768:	30ffff84 	addi	r3,r6,-2
  10576c:	10c0022e 	bgeu	r2,r3,105778 <altera_avalon_jtag_uart_ioctl+0x40>
  105770:	01a00034 	movhi	r6,32768
  105774:	31bfff84 	addi	r6,r6,-2
  105778:	0007883a 	mov	r3,zero
  10577c:	39800115 	stw	r6,4(r7)
  105780:	00000a06 	br	1057ac <altera_avalon_jtag_uart_ioctl+0x74>
  105784:	21000117 	ldw	r4,4(r4)
  105788:	00a00034 	movhi	r2,32768
  10578c:	10bfffc4 	addi	r2,r2,-1
  105790:	20800526 	beq	r4,r2,1057a8 <altera_avalon_jtag_uart_ioctl+0x70>
  105794:	38800917 	ldw	r2,36(r7)
  105798:	0007883a 	mov	r3,zero
  10579c:	1105803a 	cmpltu	r2,r2,r4
  1057a0:	30800015 	stw	r2,0(r6)
  1057a4:	00000106 	br	1057ac <altera_avalon_jtag_uart_ioctl+0x74>
  1057a8:	00fff9c4 	movi	r3,-25
  1057ac:	1805883a 	mov	r2,r3
  1057b0:	f800283a 	ret

001057b4 <altera_avalon_jtag_uart_read>:
  1057b4:	defff404 	addi	sp,sp,-48
  1057b8:	dc800415 	stw	r18,16(sp)
  1057bc:	2025883a 	mov	r18,r4
  1057c0:	21000a17 	ldw	r4,40(r4)
  1057c4:	ddc00915 	stw	r23,36(sp)
  1057c8:	dd400715 	stw	r21,28(sp)
  1057cc:	282f883a 	mov	r23,r5
  1057d0:	302b883a 	mov	r21,r6
  1057d4:	000b883a 	mov	r5,zero
  1057d8:	d9800104 	addi	r6,sp,4
  1057dc:	df000a15 	stw	fp,40(sp)
  1057e0:	dfc00b15 	stw	ra,44(sp)
  1057e4:	dd800815 	stw	r22,32(sp)
  1057e8:	dd000615 	stw	r20,24(sp)
  1057ec:	dcc00515 	stw	r19,20(sp)
  1057f0:	dc400315 	stw	r17,12(sp)
  1057f4:	dc000215 	stw	r16,8(sp)
  1057f8:	3839883a 	mov	fp,r7
  1057fc:	01032700 	call	103270 <OSSemPend>
  105800:	00002b06 	br	1058b0 <altera_avalon_jtag_uart_read+0xfc>
  105804:	b829883a 	mov	r20,r23
  105808:	94400e17 	ldw	r17,56(r18)
  10580c:	95800d17 	ldw	r22,52(r18)
  105810:	00820004 	movi	r2,2048
  105814:	1461c83a 	sub	r16,r2,r17
  105818:	b4400136 	bltu	r22,r17,105820 <altera_avalon_jtag_uart_read+0x6c>
  10581c:	b461c83a 	sub	r16,r22,r17
  105820:	a009883a 	mov	r4,r20
  105824:	800d883a 	mov	r6,r16
  105828:	80000a26 	beq	r16,zero,105854 <altera_avalon_jtag_uart_read+0xa0>
  10582c:	91401104 	addi	r5,r18,68
  105830:	ac002636 	bltu	r21,r16,1058cc <altera_avalon_jtag_uart_read+0x118>
  105834:	2c4b883a 	add	r5,r5,r17
  105838:	0106a840 	call	106a84 <memcpy>
  10583c:	8c05883a 	add	r2,r17,r16
  105840:	1081ffcc 	andi	r2,r2,2047
  105844:	ac2bc83a 	sub	r21,r21,r16
  105848:	90800e15 	stw	r2,56(r18)
  10584c:	a429883a 	add	r20,r20,r16
  105850:	057fed16 	blt	zero,r21,105808 <altera_avalon_jtag_uart_read+0x54>
  105854:	a5c0271e 	bne	r20,r23,1058f4 <altera_avalon_jtag_uart_read+0x140>
  105858:	e090000c 	andi	r2,fp,16384
  10585c:	1000151e 	bne	r2,zero,1058b4 <altera_avalon_jtag_uart_read+0x100>
  105860:	00800474 	movhi	r2,17
  105864:	10adf004 	addi	r2,r2,-18496
  105868:	10c00003 	ldbu	r3,0(r2)
  10586c:	00800044 	movi	r2,1
  105870:	1880081e 	bne	r3,r2,105894 <altera_avalon_jtag_uart_read+0xe0>
  105874:	91000c17 	ldw	r4,48(r18)
  105878:	d8800104 	addi	r2,sp,4
  10587c:	01400144 	movi	r5,5
  105880:	018020c4 	movi	r6,131
  105884:	000f883a 	mov	r7,zero
  105888:	d8800015 	stw	r2,0(sp)
  10588c:	0101d4c0 	call	101d4c <OSFlagPend>
  105890:	00000506 	br	1058a8 <altera_avalon_jtag_uart_read+0xf4>
  105894:	90800d17 	ldw	r2,52(r18)
  105898:	b080031e 	bne	r22,r2,1058a8 <altera_avalon_jtag_uart_read+0xf4>
  10589c:	90c00917 	ldw	r3,36(r18)
  1058a0:	90800117 	ldw	r2,4(r18)
  1058a4:	18bffb36 	bltu	r3,r2,105894 <altera_avalon_jtag_uart_read+0xe0>
  1058a8:	90800d17 	ldw	r2,52(r18)
  1058ac:	b0800126 	beq	r22,r2,1058b4 <altera_avalon_jtag_uart_read+0x100>
  1058b0:	057fd416 	blt	zero,r21,105804 <altera_avalon_jtag_uart_read+0x50>
  1058b4:	91000a17 	ldw	r4,40(r18)
  1058b8:	01034c40 	call	1034c4 <OSSemPost>
  1058bc:	e090000c 	andi	r2,fp,16384
  1058c0:	10001a1e 	bne	r2,zero,10592c <altera_avalon_jtag_uart_read+0x178>
  1058c4:	00bffec4 	movi	r2,-5
  1058c8:	00001906 	br	105930 <altera_avalon_jtag_uart_read+0x17c>
  1058cc:	a009883a 	mov	r4,r20
  1058d0:	a80d883a 	mov	r6,r21
  1058d4:	2c4b883a 	add	r5,r5,r17
  1058d8:	0106a840 	call	106a84 <memcpy>
  1058dc:	8d45883a 	add	r2,r17,r21
  1058e0:	a569883a 	add	r20,r20,r21
  1058e4:	1081ffcc 	andi	r2,r2,2047
  1058e8:	002b883a 	mov	r21,zero
  1058ec:	90800e15 	stw	r2,56(r18)
  1058f0:	003fd806 	br	105854 <altera_avalon_jtag_uart_read+0xa0>
  1058f4:	91000a17 	ldw	r4,40(r18)
  1058f8:	01034c40 	call	1034c4 <OSSemPost>
  1058fc:	0009303a 	rdctl	r4,status
  105900:	00bfff84 	movi	r2,-2
  105904:	2084703a 	and	r2,r4,r2
  105908:	1001703a 	wrctl	status,r2
  10590c:	90800817 	ldw	r2,32(r18)
  105910:	90c00017 	ldw	r3,0(r18)
  105914:	10800054 	ori	r2,r2,1
  105918:	90800815 	stw	r2,32(r18)
  10591c:	18800135 	stwio	r2,4(r3)
  105920:	2001703a 	wrctl	status,r4
  105924:	a5c5c83a 	sub	r2,r20,r23
  105928:	00000106 	br	105930 <altera_avalon_jtag_uart_read+0x17c>
  10592c:	00bffd44 	movi	r2,-11
  105930:	dfc00b17 	ldw	ra,44(sp)
  105934:	df000a17 	ldw	fp,40(sp)
  105938:	ddc00917 	ldw	r23,36(sp)
  10593c:	dd800817 	ldw	r22,32(sp)
  105940:	dd400717 	ldw	r21,28(sp)
  105944:	dd000617 	ldw	r20,24(sp)
  105948:	dcc00517 	ldw	r19,20(sp)
  10594c:	dc800417 	ldw	r18,16(sp)
  105950:	dc400317 	ldw	r17,12(sp)
  105954:	dc000217 	ldw	r16,8(sp)
  105958:	dec00c04 	addi	sp,sp,48
  10595c:	f800283a 	ret

00105960 <altera_avalon_jtag_uart_write>:
  105960:	defff604 	addi	sp,sp,-40
  105964:	dc400315 	stw	r17,12(sp)
  105968:	2023883a 	mov	r17,r4
  10596c:	21000b17 	ldw	r4,44(r4)
  105970:	dd400715 	stw	r21,28(sp)
  105974:	dcc00515 	stw	r19,20(sp)
  105978:	282b883a 	mov	r21,r5
  10597c:	3027883a 	mov	r19,r6
  105980:	000b883a 	mov	r5,zero
  105984:	d9800104 	addi	r6,sp,4
  105988:	dd800815 	stw	r22,32(sp)
  10598c:	dd000615 	stw	r20,24(sp)
  105990:	dfc00915 	stw	ra,36(sp)
  105994:	dc800415 	stw	r18,16(sp)
  105998:	dc000215 	stw	r16,8(sp)
  10599c:	382d883a 	mov	r22,r7
  1059a0:	a829883a 	mov	r20,r21
  1059a4:	01032700 	call	103270 <OSSemPend>
  1059a8:	00001906 	br	105a10 <altera_avalon_jtag_uart_write+0xb0>
  1059ac:	8c800f17 	ldw	r18,60(r17)
  1059b0:	8c001017 	ldw	r16,64(r17)
  1059b4:	9400032e 	bgeu	r18,r16,1059c4 <altera_avalon_jtag_uart_write+0x64>
  1059b8:	8485c83a 	sub	r2,r16,r18
  1059bc:	10bfffc4 	addi	r2,r2,-1
  1059c0:	00000506 	br	1059d8 <altera_avalon_jtag_uart_write+0x78>
  1059c4:	80000226 	beq	r16,zero,1059d0 <altera_avalon_jtag_uart_write+0x70>
  1059c8:	00820004 	movi	r2,2048
  1059cc:	00000106 	br	1059d4 <altera_avalon_jtag_uart_write+0x74>
  1059d0:	0081ffc4 	movi	r2,2047
  1059d4:	1485c83a 	sub	r2,r2,r18
  1059d8:	10003826 	beq	r2,zero,105abc <altera_avalon_jtag_uart_write+0x15c>
  1059dc:	9821883a 	mov	r16,r19
  1059e0:	14c0012e 	bgeu	r2,r19,1059e8 <altera_avalon_jtag_uart_write+0x88>
  1059e4:	1021883a 	mov	r16,r2
  1059e8:	89021104 	addi	r4,r17,2116
  1059ec:	a00b883a 	mov	r5,r20
  1059f0:	2489883a 	add	r4,r4,r18
  1059f4:	800d883a 	mov	r6,r16
  1059f8:	0106a840 	call	106a84 <memcpy>
  1059fc:	9405883a 	add	r2,r18,r16
  105a00:	1081ffcc 	andi	r2,r2,2047
  105a04:	88800f15 	stw	r2,60(r17)
  105a08:	a429883a 	add	r20,r20,r16
  105a0c:	9c27c83a 	sub	r19,r19,r16
  105a10:	04ffe616 	blt	zero,r19,1059ac <altera_avalon_jtag_uart_write+0x4c>
  105a14:	0009303a 	rdctl	r4,status
  105a18:	00bfff84 	movi	r2,-2
  105a1c:	2084703a 	and	r2,r4,r2
  105a20:	1001703a 	wrctl	status,r2
  105a24:	88800817 	ldw	r2,32(r17)
  105a28:	88c00017 	ldw	r3,0(r17)
  105a2c:	10800094 	ori	r2,r2,2
  105a30:	88800815 	stw	r2,32(r17)
  105a34:	18800135 	stwio	r2,4(r3)
  105a38:	2001703a 	wrctl	status,r4
  105a3c:	00001406 	br	105a90 <altera_avalon_jtag_uart_write+0x130>
  105a40:	00800474 	movhi	r2,17
  105a44:	10adf004 	addi	r2,r2,-18496
  105a48:	10c00003 	ldbu	r3,0(r2)
  105a4c:	00800044 	movi	r2,1
  105a50:	1880081e 	bne	r3,r2,105a74 <altera_avalon_jtag_uart_write+0x114>
  105a54:	89000c17 	ldw	r4,48(r17)
  105a58:	d8800104 	addi	r2,sp,4
  105a5c:	01400184 	movi	r5,6
  105a60:	018020c4 	movi	r6,131
  105a64:	000f883a 	mov	r7,zero
  105a68:	d8800015 	stw	r2,0(sp)
  105a6c:	0101d4c0 	call	101d4c <OSFlagPend>
  105a70:	00000506 	br	105a88 <altera_avalon_jtag_uart_write+0x128>
  105a74:	88801017 	ldw	r2,64(r17)
  105a78:	8080031e 	bne	r16,r2,105a88 <altera_avalon_jtag_uart_write+0x128>
  105a7c:	88c00917 	ldw	r3,36(r17)
  105a80:	88800117 	ldw	r2,4(r17)
  105a84:	18bffb36 	bltu	r3,r2,105a74 <altera_avalon_jtag_uart_write+0x114>
  105a88:	88801017 	ldw	r2,64(r17)
  105a8c:	80bfe01e 	bne	r16,r2,105a10 <altera_avalon_jtag_uart_write+0xb0>
  105a90:	89000b17 	ldw	r4,44(r17)
  105a94:	01034c40 	call	1034c4 <OSSemPost>
  105a98:	a5400226 	beq	r20,r21,105aa4 <altera_avalon_jtag_uart_write+0x144>
  105a9c:	a545c83a 	sub	r2,r20,r21
  105aa0:	00001306 	br	105af0 <altera_avalon_jtag_uart_write+0x190>
  105aa4:	b090000c 	andi	r2,r22,16384
  105aa8:	10000226 	beq	r2,zero,105ab4 <altera_avalon_jtag_uart_write+0x154>
  105aac:	00bffd44 	movi	r2,-11
  105ab0:	00000f06 	br	105af0 <altera_avalon_jtag_uart_write+0x190>
  105ab4:	00bffec4 	movi	r2,-5
  105ab8:	00000d06 	br	105af0 <altera_avalon_jtag_uart_write+0x190>
  105abc:	0009303a 	rdctl	r4,status
  105ac0:	00bfff84 	movi	r2,-2
  105ac4:	2084703a 	and	r2,r4,r2
  105ac8:	1001703a 	wrctl	status,r2
  105acc:	88800817 	ldw	r2,32(r17)
  105ad0:	88c00017 	ldw	r3,0(r17)
  105ad4:	10800094 	ori	r2,r2,2
  105ad8:	88800815 	stw	r2,32(r17)
  105adc:	18800135 	stwio	r2,4(r3)
  105ae0:	2001703a 	wrctl	status,r4
  105ae4:	b090000c 	andi	r2,r22,16384
  105ae8:	103fd526 	beq	r2,zero,105a40 <altera_avalon_jtag_uart_write+0xe0>
  105aec:	003fe806 	br	105a90 <altera_avalon_jtag_uart_write+0x130>
  105af0:	dfc00917 	ldw	ra,36(sp)
  105af4:	dd800817 	ldw	r22,32(sp)
  105af8:	dd400717 	ldw	r21,28(sp)
  105afc:	dd000617 	ldw	r20,24(sp)
  105b00:	dcc00517 	ldw	r19,20(sp)
  105b04:	dc800417 	ldw	r18,16(sp)
  105b08:	dc400317 	ldw	r17,12(sp)
  105b0c:	dc000217 	ldw	r16,8(sp)
  105b10:	dec00a04 	addi	sp,sp,40
  105b14:	f800283a 	ret

00105b18 <alt_avalon_timer_sc_init>:
  105b18:	02000474 	movhi	r8,17
  105b1c:	422e0b04 	addi	r8,r8,-18388
  105b20:	40800017 	ldw	r2,0(r8)
  105b24:	defffe04 	addi	sp,sp,-8
  105b28:	3807883a 	mov	r3,r7
  105b2c:	dfc00115 	stw	ra,4(sp)
  105b30:	200f883a 	mov	r7,r4
  105b34:	1000011e 	bne	r2,zero,105b3c <alt_avalon_timer_sc_init+0x24>
  105b38:	40c00015 	stw	r3,0(r8)
  105b3c:	008001c4 	movi	r2,7
  105b40:	38800135 	stwio	r2,4(r7)
  105b44:	2809883a 	mov	r4,r5
  105b48:	300b883a 	mov	r5,r6
  105b4c:	01800434 	movhi	r6,16
  105b50:	3196da04 	addi	r6,r6,23400
  105b54:	d8000015 	stw	zero,0(sp)
  105b58:	01061480 	call	106148 <alt_ic_isr_register>
  105b5c:	dfc00117 	ldw	ra,4(sp)
  105b60:	dec00204 	addi	sp,sp,8
  105b64:	f800283a 	ret

00105b68 <alt_avalon_timer_sc_irq>:
  105b68:	defffe04 	addi	sp,sp,-8
  105b6c:	dfc00115 	stw	ra,4(sp)
  105b70:	dc000015 	stw	r16,0(sp)
  105b74:	20000035 	stwio	zero,0(r4)
  105b78:	20800137 	ldwio	r2,4(r4)
  105b7c:	0021303a 	rdctl	r16,status
  105b80:	00bfff84 	movi	r2,-2
  105b84:	8084703a 	and	r2,r16,r2
  105b88:	1001703a 	wrctl	status,r2
  105b8c:	01064d80 	call	1064d8 <alt_tick>
  105b90:	8001703a 	wrctl	status,r16
  105b94:	dfc00117 	ldw	ra,4(sp)
  105b98:	dc000017 	ldw	r16,0(sp)
  105b9c:	dec00204 	addi	sp,sp,8
  105ba0:	f800283a 	ret

00105ba4 <get_DDRAM_addr>:
  105ba4:	2005883a 	mov	r2,r4
  105ba8:	28000126 	beq	r5,zero,105bb0 <get_DDRAM_addr+0xc>
  105bac:	20801014 	ori	r2,r4,64
  105bb0:	10803fcc 	andi	r2,r2,255
  105bb4:	10802014 	ori	r2,r2,128
  105bb8:	f800283a 	ret

00105bbc <alt_up_character_lcd_string>:
  105bbc:	00000306 	br	105bcc <alt_up_character_lcd_string+0x10>
  105bc0:	20800a17 	ldw	r2,40(r4)
  105bc4:	10c00065 	stbio	r3,1(r2)
  105bc8:	29400044 	addi	r5,r5,1
  105bcc:	28c00007 	ldb	r3,0(r5)
